
LoRa.elf:     file format elf32-littlearm

Sections:
Idx Name          Size      VMA       LMA       File off  Algn
  0 .isr_vector   0000010c  08000000  08000000  00010000  2**0
                  CONTENTS, ALLOC, LOAD, READONLY, DATA
  1 .text         000025fc  0800010c  0800010c  0001010c  2**2
                  CONTENTS, ALLOC, LOAD, READONLY, CODE
  2 .rodata       00000034  08002708  08002708  00012708  2**2
                  CONTENTS, ALLOC, LOAD, READONLY, DATA
  3 .ARM.extab    00000000  0800273c  0800273c  0002000c  2**0
                  CONTENTS
  4 .ARM          00000000  0800273c  0800273c  0002000c  2**0
                  CONTENTS
  5 .preinit_array 00000000  0800273c  0800273c  0002000c  2**0
                  CONTENTS, ALLOC, LOAD, DATA
  6 .init_array   00000004  0800273c  0800273c  0001273c  2**2
                  CONTENTS, ALLOC, LOAD, DATA
  7 .fini_array   00000004  08002740  08002740  00012740  2**2
                  CONTENTS, ALLOC, LOAD, DATA
  8 .data         0000000c  20000000  08002744  00020000  2**2
                  CONTENTS, ALLOC, LOAD, DATA
  9 .bss          000000ec  2000000c  08002750  0002000c  2**2
                  ALLOC
 10 ._user_heap_stack 00000600  200000f8  08002750  000200f8  2**0
                  ALLOC
 11 .ARM.attributes 00000029  00000000  00000000  0002000c  2**0
                  CONTENTS, READONLY
 12 .debug_info   000092d2  00000000  00000000  00020035  2**0
                  CONTENTS, READONLY, DEBUGGING, OCTETS
 13 .debug_abbrev 000016d9  00000000  00000000  00029307  2**0
                  CONTENTS, READONLY, DEBUGGING, OCTETS
 14 .debug_aranges 00000888  00000000  00000000  0002a9e0  2**3
                  CONTENTS, READONLY, DEBUGGING, OCTETS
 15 .debug_ranges 00000800  00000000  00000000  0002b268  2**3
                  CONTENTS, READONLY, DEBUGGING, OCTETS
 16 .debug_macro  00016080  00000000  00000000  0002ba68  2**0
                  CONTENTS, READONLY, DEBUGGING, OCTETS
 17 .debug_line   000095cf  00000000  00000000  00041ae8  2**0
                  CONTENTS, READONLY, DEBUGGING, OCTETS
 18 .debug_str    0007dd85  00000000  00000000  0004b0b7  2**0
                  CONTENTS, READONLY, DEBUGGING, OCTETS
 19 .comment      00000050  00000000  00000000  000c8e3c  2**0
                  CONTENTS, READONLY
 20 .debug_frame  0000222c  00000000  00000000  000c8e8c  2**2
                  CONTENTS, READONLY, DEBUGGING, OCTETS

Disassembly of section .text:

0800010c <__do_global_dtors_aux>:
 800010c:	b510      	push	{r4, lr}
 800010e:	4c05      	ldr	r4, [pc, #20]	; (8000124 <__do_global_dtors_aux+0x18>)
 8000110:	7823      	ldrb	r3, [r4, #0]
 8000112:	b933      	cbnz	r3, 8000122 <__do_global_dtors_aux+0x16>
 8000114:	4b04      	ldr	r3, [pc, #16]	; (8000128 <__do_global_dtors_aux+0x1c>)
 8000116:	b113      	cbz	r3, 800011e <__do_global_dtors_aux+0x12>
 8000118:	4804      	ldr	r0, [pc, #16]	; (800012c <__do_global_dtors_aux+0x20>)
 800011a:	f3af 8000 	nop.w
 800011e:	2301      	movs	r3, #1
 8000120:	7023      	strb	r3, [r4, #0]
 8000122:	bd10      	pop	{r4, pc}
 8000124:	2000000c 	.word	0x2000000c
 8000128:	00000000 	.word	0x00000000
 800012c:	080026f0 	.word	0x080026f0

08000130 <frame_dummy>:
 8000130:	b508      	push	{r3, lr}
 8000132:	4b03      	ldr	r3, [pc, #12]	; (8000140 <frame_dummy+0x10>)
 8000134:	b11b      	cbz	r3, 800013e <frame_dummy+0xe>
 8000136:	4903      	ldr	r1, [pc, #12]	; (8000144 <frame_dummy+0x14>)
 8000138:	4803      	ldr	r0, [pc, #12]	; (8000148 <frame_dummy+0x18>)
 800013a:	f3af 8000 	nop.w
 800013e:	bd08      	pop	{r3, pc}
 8000140:	00000000 	.word	0x00000000
 8000144:	20000010 	.word	0x20000010
 8000148:	080026f0 	.word	0x080026f0

0800014c <LoRa_reset>:
		arguments   :
			LoRa* LoRa --> LoRa object handler

		returns     : Nothing
\* ----------------------------------------------------------------------------- */
void LoRa_reset(LoRa* _LoRa){
 800014c:	b580      	push	{r7, lr}
 800014e:	b082      	sub	sp, #8
 8000150:	af00      	add	r7, sp, #0
 8000152:	6078      	str	r0, [r7, #4]
	HAL_GPIO_WritePin(_LoRa->reset_port, _LoRa->reset_pin, GPIO_PIN_RESET);
 8000154:	687b      	ldr	r3, [r7, #4]
 8000156:	6898      	ldr	r0, [r3, #8]
 8000158:	687b      	ldr	r3, [r7, #4]
 800015a:	899b      	ldrh	r3, [r3, #12]
 800015c:	2200      	movs	r2, #0
 800015e:	4619      	mov	r1, r3
 8000160:	f001 f800 	bl	8001164 <HAL_GPIO_WritePin>
	HAL_Delay(1);
 8000164:	2001      	movs	r0, #1
 8000166:	f000 fd79 	bl	8000c5c <HAL_Delay>
	HAL_GPIO_WritePin(_LoRa->reset_port, _LoRa->reset_pin, GPIO_PIN_SET);
 800016a:	687b      	ldr	r3, [r7, #4]
 800016c:	6898      	ldr	r0, [r3, #8]
 800016e:	687b      	ldr	r3, [r7, #4]
 8000170:	899b      	ldrh	r3, [r3, #12]
 8000172:	2201      	movs	r2, #1
 8000174:	4619      	mov	r1, r3
 8000176:	f000 fff5 	bl	8001164 <HAL_GPIO_WritePin>
	HAL_Delay(100);
 800017a:	2064      	movs	r0, #100	; 0x64
 800017c:	f000 fd6e 	bl	8000c5c <HAL_Delay>
}
 8000180:	bf00      	nop
 8000182:	3708      	adds	r7, #8
 8000184:	46bd      	mov	sp, r7
 8000186:	bd80      	pop	{r7, pc}

08000188 <LoRa_gotoMode>:
			LoRa* LoRa    --> LoRa object handler
			mode	        --> select from defined modes

		returns     : Nothing
\* ----------------------------------------------------------------------------- */
void LoRa_gotoMode(LoRa* _LoRa, int mode){
 8000188:	b580      	push	{r7, lr}
 800018a:	b084      	sub	sp, #16
 800018c:	af00      	add	r7, sp, #0
 800018e:	6078      	str	r0, [r7, #4]
 8000190:	6039      	str	r1, [r7, #0]
	uint8_t    read;
	uint8_t    data;

	read = LoRa_read(_LoRa, RegOpMode);
 8000192:	2101      	movs	r1, #1
 8000194:	6878      	ldr	r0, [r7, #4]
 8000196:	f000 f9a0 	bl	80004da <LoRa_read>
 800019a:	4603      	mov	r3, r0
 800019c:	73bb      	strb	r3, [r7, #14]
	data = read;
 800019e:	7bbb      	ldrb	r3, [r7, #14]
 80001a0:	73fb      	strb	r3, [r7, #15]

	if(mode == SLEEP_MODE){
 80001a2:	683b      	ldr	r3, [r7, #0]
 80001a4:	2b00      	cmp	r3, #0
 80001a6:	d107      	bne.n	80001b8 <LoRa_gotoMode+0x30>
		data = (read & 0xF8) | 0x00;
 80001a8:	7bbb      	ldrb	r3, [r7, #14]
 80001aa:	f023 0307 	bic.w	r3, r3, #7
 80001ae:	73fb      	strb	r3, [r7, #15]
		_LoRa->current_mode = SLEEP_MODE;
 80001b0:	687b      	ldr	r3, [r7, #4]
 80001b2:	2200      	movs	r2, #0
 80001b4:	61da      	str	r2, [r3, #28]
 80001b6:	e03e      	b.n	8000236 <LoRa_gotoMode+0xae>
	}else if (mode == STNBY_MODE){
 80001b8:	683b      	ldr	r3, [r7, #0]
 80001ba:	2b01      	cmp	r3, #1
 80001bc:	d10c      	bne.n	80001d8 <LoRa_gotoMode+0x50>
		data = (read & 0xF8) | 0x01;
 80001be:	f997 300e 	ldrsb.w	r3, [r7, #14]
 80001c2:	f023 0307 	bic.w	r3, r3, #7
 80001c6:	b25b      	sxtb	r3, r3
 80001c8:	f043 0301 	orr.w	r3, r3, #1
 80001cc:	b25b      	sxtb	r3, r3
 80001ce:	73fb      	strb	r3, [r7, #15]
		_LoRa->current_mode = STNBY_MODE;
 80001d0:	687b      	ldr	r3, [r7, #4]
 80001d2:	2201      	movs	r2, #1
 80001d4:	61da      	str	r2, [r3, #28]
 80001d6:	e02e      	b.n	8000236 <LoRa_gotoMode+0xae>
	}else if (mode == TRANSMIT_MODE){
 80001d8:	683b      	ldr	r3, [r7, #0]
 80001da:	2b03      	cmp	r3, #3
 80001dc:	d10c      	bne.n	80001f8 <LoRa_gotoMode+0x70>
		data = (read & 0xF8) | 0x03;
 80001de:	f997 300e 	ldrsb.w	r3, [r7, #14]
 80001e2:	f023 0307 	bic.w	r3, r3, #7
 80001e6:	b25b      	sxtb	r3, r3
 80001e8:	f043 0303 	orr.w	r3, r3, #3
 80001ec:	b25b      	sxtb	r3, r3
 80001ee:	73fb      	strb	r3, [r7, #15]
		_LoRa->current_mode = TRANSMIT_MODE;
 80001f0:	687b      	ldr	r3, [r7, #4]
 80001f2:	2203      	movs	r2, #3
 80001f4:	61da      	str	r2, [r3, #28]
 80001f6:	e01e      	b.n	8000236 <LoRa_gotoMode+0xae>
	}else if (mode == RXCONTIN_MODE){
 80001f8:	683b      	ldr	r3, [r7, #0]
 80001fa:	2b05      	cmp	r3, #5
 80001fc:	d10c      	bne.n	8000218 <LoRa_gotoMode+0x90>
		data = (read & 0xF8) | 0x05;
 80001fe:	f997 300e 	ldrsb.w	r3, [r7, #14]
 8000202:	f023 0307 	bic.w	r3, r3, #7
 8000206:	b25b      	sxtb	r3, r3
 8000208:	f043 0305 	orr.w	r3, r3, #5
 800020c:	b25b      	sxtb	r3, r3
 800020e:	73fb      	strb	r3, [r7, #15]
		_LoRa->current_mode = RXCONTIN_MODE;
 8000210:	687b      	ldr	r3, [r7, #4]
 8000212:	2205      	movs	r2, #5
 8000214:	61da      	str	r2, [r3, #28]
 8000216:	e00e      	b.n	8000236 <LoRa_gotoMode+0xae>
	}else if (mode == RXSINGLE_MODE){
 8000218:	683b      	ldr	r3, [r7, #0]
 800021a:	2b06      	cmp	r3, #6
 800021c:	d10b      	bne.n	8000236 <LoRa_gotoMode+0xae>
		data = (read & 0xF8) | 0x06;
 800021e:	f997 300e 	ldrsb.w	r3, [r7, #14]
 8000222:	f023 0307 	bic.w	r3, r3, #7
 8000226:	b25b      	sxtb	r3, r3
 8000228:	f043 0306 	orr.w	r3, r3, #6
 800022c:	b25b      	sxtb	r3, r3
 800022e:	73fb      	strb	r3, [r7, #15]
		_LoRa->current_mode = RXSINGLE_MODE;
 8000230:	687b      	ldr	r3, [r7, #4]
 8000232:	2206      	movs	r2, #6
 8000234:	61da      	str	r2, [r3, #28]
	}

	LoRa_write(_LoRa, RegOpMode, data);
 8000236:	7bfb      	ldrb	r3, [r7, #15]
 8000238:	461a      	mov	r2, r3
 800023a:	2101      	movs	r1, #1
 800023c:	6878      	ldr	r0, [r7, #4]
 800023e:	f000 f966 	bl	800050e <LoRa_write>
	//HAL_Delay(10);
}
 8000242:	bf00      	nop
 8000244:	3710      	adds	r7, #16
 8000246:	46bd      	mov	sp, r7
 8000248:	bd80      	pop	{r7, pc}

0800024a <LoRa_readReg>:
			uint8_t* output		--> pointer to the beginning of output array
			uint16_t w_length	--> detemines number of bytes that you want to read

		returns     : Nothing
\* ----------------------------------------------------------------------------- */
void LoRa_readReg(LoRa* _LoRa, uint8_t* address, uint16_t r_length, uint8_t* output, uint16_t w_length){
 800024a:	b580      	push	{r7, lr}
 800024c:	b084      	sub	sp, #16
 800024e:	af00      	add	r7, sp, #0
 8000250:	60f8      	str	r0, [r7, #12]
 8000252:	60b9      	str	r1, [r7, #8]
 8000254:	603b      	str	r3, [r7, #0]
 8000256:	4613      	mov	r3, r2
 8000258:	80fb      	strh	r3, [r7, #6]
	HAL_GPIO_WritePin(_LoRa->CS_port, _LoRa->CS_pin, GPIO_PIN_RESET);
 800025a:	68fb      	ldr	r3, [r7, #12]
 800025c:	6818      	ldr	r0, [r3, #0]
 800025e:	68fb      	ldr	r3, [r7, #12]
 8000260:	889b      	ldrh	r3, [r3, #4]
 8000262:	2200      	movs	r2, #0
 8000264:	4619      	mov	r1, r3
 8000266:	f000 ff7d 	bl	8001164 <HAL_GPIO_WritePin>
	HAL_SPI_Transmit(_LoRa->hSPIx, address, r_length, TRANSMIT_TIMEOUT);
 800026a:	68fb      	ldr	r3, [r7, #12]
 800026c:	6998      	ldr	r0, [r3, #24]
 800026e:	88fa      	ldrh	r2, [r7, #6]
 8000270:	f44f 63fa 	mov.w	r3, #2000	; 0x7d0
 8000274:	68b9      	ldr	r1, [r7, #8]
 8000276:	f001 fc21 	bl	8001abc <HAL_SPI_Transmit>
	while (HAL_SPI_GetState(_LoRa->hSPIx) != HAL_SPI_STATE_READY)
 800027a:	bf00      	nop
 800027c:	68fb      	ldr	r3, [r7, #12]
 800027e:	699b      	ldr	r3, [r3, #24]
 8000280:	4618      	mov	r0, r3
 8000282:	f002 f826 	bl	80022d2 <HAL_SPI_GetState>
 8000286:	4603      	mov	r3, r0
 8000288:	2b01      	cmp	r3, #1
 800028a:	d1f7      	bne.n	800027c <LoRa_readReg+0x32>
		;
	HAL_SPI_Receive(_LoRa->hSPIx, output, w_length, RECEIVE_TIMEOUT);
 800028c:	68fb      	ldr	r3, [r7, #12]
 800028e:	6998      	ldr	r0, [r3, #24]
 8000290:	8b3a      	ldrh	r2, [r7, #24]
 8000292:	f44f 63fa 	mov.w	r3, #2000	; 0x7d0
 8000296:	6839      	ldr	r1, [r7, #0]
 8000298:	f001 fd53 	bl	8001d42 <HAL_SPI_Receive>
	while (HAL_SPI_GetState(_LoRa->hSPIx) != HAL_SPI_STATE_READY)
 800029c:	bf00      	nop
 800029e:	68fb      	ldr	r3, [r7, #12]
 80002a0:	699b      	ldr	r3, [r3, #24]
 80002a2:	4618      	mov	r0, r3
 80002a4:	f002 f815 	bl	80022d2 <HAL_SPI_GetState>
 80002a8:	4603      	mov	r3, r0
 80002aa:	2b01      	cmp	r3, #1
 80002ac:	d1f7      	bne.n	800029e <LoRa_readReg+0x54>
		;
	HAL_GPIO_WritePin(_LoRa->CS_port, _LoRa->CS_pin, GPIO_PIN_SET);
 80002ae:	68fb      	ldr	r3, [r7, #12]
 80002b0:	6818      	ldr	r0, [r3, #0]
 80002b2:	68fb      	ldr	r3, [r7, #12]
 80002b4:	889b      	ldrh	r3, [r3, #4]
 80002b6:	2201      	movs	r2, #1
 80002b8:	4619      	mov	r1, r3
 80002ba:	f000 ff53 	bl	8001164 <HAL_GPIO_WritePin>
}
 80002be:	bf00      	nop
 80002c0:	3710      	adds	r7, #16
 80002c2:	46bd      	mov	sp, r7
 80002c4:	bd80      	pop	{r7, pc}

080002c6 <LoRa_writeReg>:
			uint8_t* output		--> pointer to the beginning of values array
			uint16_t w_length	--> detemines number of bytes that you want to send

		returns     : Nothing
\* ----------------------------------------------------------------------------- */
void LoRa_writeReg(LoRa* _LoRa, uint8_t* address, uint16_t r_length, uint8_t* values, uint16_t w_length){
 80002c6:	b580      	push	{r7, lr}
 80002c8:	b084      	sub	sp, #16
 80002ca:	af00      	add	r7, sp, #0
 80002cc:	60f8      	str	r0, [r7, #12]
 80002ce:	60b9      	str	r1, [r7, #8]
 80002d0:	603b      	str	r3, [r7, #0]
 80002d2:	4613      	mov	r3, r2
 80002d4:	80fb      	strh	r3, [r7, #6]
	HAL_GPIO_WritePin(_LoRa->CS_port, _LoRa->CS_pin, GPIO_PIN_RESET);
 80002d6:	68fb      	ldr	r3, [r7, #12]
 80002d8:	6818      	ldr	r0, [r3, #0]
 80002da:	68fb      	ldr	r3, [r7, #12]
 80002dc:	889b      	ldrh	r3, [r3, #4]
 80002de:	2200      	movs	r2, #0
 80002e0:	4619      	mov	r1, r3
 80002e2:	f000 ff3f 	bl	8001164 <HAL_GPIO_WritePin>
	HAL_SPI_Transmit(_LoRa->hSPIx, address, r_length, TRANSMIT_TIMEOUT);
 80002e6:	68fb      	ldr	r3, [r7, #12]
 80002e8:	6998      	ldr	r0, [r3, #24]
 80002ea:	88fa      	ldrh	r2, [r7, #6]
 80002ec:	f44f 63fa 	mov.w	r3, #2000	; 0x7d0
 80002f0:	68b9      	ldr	r1, [r7, #8]
 80002f2:	f001 fbe3 	bl	8001abc <HAL_SPI_Transmit>
	while (HAL_SPI_GetState(_LoRa->hSPIx) != HAL_SPI_STATE_READY)
 80002f6:	bf00      	nop
 80002f8:	68fb      	ldr	r3, [r7, #12]
 80002fa:	699b      	ldr	r3, [r3, #24]
 80002fc:	4618      	mov	r0, r3
 80002fe:	f001 ffe8 	bl	80022d2 <HAL_SPI_GetState>
 8000302:	4603      	mov	r3, r0
 8000304:	2b01      	cmp	r3, #1
 8000306:	d1f7      	bne.n	80002f8 <LoRa_writeReg+0x32>
		;
	HAL_SPI_Transmit(_LoRa->hSPIx, values, w_length, TRANSMIT_TIMEOUT);
 8000308:	68fb      	ldr	r3, [r7, #12]
 800030a:	6998      	ldr	r0, [r3, #24]
 800030c:	8b3a      	ldrh	r2, [r7, #24]
 800030e:	f44f 63fa 	mov.w	r3, #2000	; 0x7d0
 8000312:	6839      	ldr	r1, [r7, #0]
 8000314:	f001 fbd2 	bl	8001abc <HAL_SPI_Transmit>
	while (HAL_SPI_GetState(_LoRa->hSPIx) != HAL_SPI_STATE_READY)
 8000318:	bf00      	nop
 800031a:	68fb      	ldr	r3, [r7, #12]
 800031c:	699b      	ldr	r3, [r3, #24]
 800031e:	4618      	mov	r0, r3
 8000320:	f001 ffd7 	bl	80022d2 <HAL_SPI_GetState>
 8000324:	4603      	mov	r3, r0
 8000326:	2b01      	cmp	r3, #1
 8000328:	d1f7      	bne.n	800031a <LoRa_writeReg+0x54>
		;
	HAL_GPIO_WritePin(_LoRa->CS_port, _LoRa->CS_pin, GPIO_PIN_SET);
 800032a:	68fb      	ldr	r3, [r7, #12]
 800032c:	6818      	ldr	r0, [r3, #0]
 800032e:	68fb      	ldr	r3, [r7, #12]
 8000330:	889b      	ldrh	r3, [r3, #4]
 8000332:	2201      	movs	r2, #1
 8000334:	4619      	mov	r1, r3
 8000336:	f000 ff15 	bl	8001164 <HAL_GPIO_WritePin>
}
 800033a:	bf00      	nop
 800033c:	3710      	adds	r7, #16
 800033e:	46bd      	mov	sp, r7
 8000340:	bd80      	pop	{r7, pc}

08000342 <LoRa_setFrequency>:
			LoRa* LoRa        --> LoRa object handler
			int   freq        --> desired frequency in MHz unit, e.g 434

		returns     : Nothing
\* ----------------------------------------------------------------------------- */
void LoRa_setFrequency(LoRa* _LoRa, int freq){
 8000342:	b580      	push	{r7, lr}
 8000344:	b084      	sub	sp, #16
 8000346:	af00      	add	r7, sp, #0
 8000348:	6078      	str	r0, [r7, #4]
 800034a:	6039      	str	r1, [r7, #0]
	uint8_t  data;
	uint32_t F;
	F = (freq * 524288)>>5;
 800034c:	683b      	ldr	r3, [r7, #0]
 800034e:	04db      	lsls	r3, r3, #19
 8000350:	115b      	asrs	r3, r3, #5
 8000352:	60fb      	str	r3, [r7, #12]

	// write Msb:
	data = F >> 16;
 8000354:	68fb      	ldr	r3, [r7, #12]
 8000356:	0c1b      	lsrs	r3, r3, #16
 8000358:	72fb      	strb	r3, [r7, #11]
	LoRa_write(_LoRa, RegFrMsb, data);
 800035a:	7afb      	ldrb	r3, [r7, #11]
 800035c:	461a      	mov	r2, r3
 800035e:	2106      	movs	r1, #6
 8000360:	6878      	ldr	r0, [r7, #4]
 8000362:	f000 f8d4 	bl	800050e <LoRa_write>
	HAL_Delay(5);
 8000366:	2005      	movs	r0, #5
 8000368:	f000 fc78 	bl	8000c5c <HAL_Delay>

	// write Mid:
	data = F >> 8;
 800036c:	68fb      	ldr	r3, [r7, #12]
 800036e:	0a1b      	lsrs	r3, r3, #8
 8000370:	72fb      	strb	r3, [r7, #11]
	LoRa_write(_LoRa, RegFrMid, data);
 8000372:	7afb      	ldrb	r3, [r7, #11]
 8000374:	461a      	mov	r2, r3
 8000376:	2107      	movs	r1, #7
 8000378:	6878      	ldr	r0, [r7, #4]
 800037a:	f000 f8c8 	bl	800050e <LoRa_write>
	HAL_Delay(5);
 800037e:	2005      	movs	r0, #5
 8000380:	f000 fc6c 	bl	8000c5c <HAL_Delay>

	// write Lsb:
	data = F >> 0;
 8000384:	68fb      	ldr	r3, [r7, #12]
 8000386:	72fb      	strb	r3, [r7, #11]
	LoRa_write(_LoRa, RegFrLsb, data);
 8000388:	7afb      	ldrb	r3, [r7, #11]
 800038a:	461a      	mov	r2, r3
 800038c:	2108      	movs	r1, #8
 800038e:	6878      	ldr	r0, [r7, #4]
 8000390:	f000 f8bd 	bl	800050e <LoRa_write>
	HAL_Delay(5);
 8000394:	2005      	movs	r0, #5
 8000396:	f000 fc61 	bl	8000c5c <HAL_Delay>
}
 800039a:	bf00      	nop
 800039c:	3710      	adds	r7, #16
 800039e:	46bd      	mov	sp, r7
 80003a0:	bd80      	pop	{r7, pc}

080003a2 <LoRa_setSpreadingFactor>:
			LoRa* LoRa        --> LoRa object handler
			int   SP          --> desired spreading factor e.g 7

		returns     : Nothing
\* ----------------------------------------------------------------------------- */
void LoRa_setSpreadingFactor(LoRa* _LoRa, int SF){
 80003a2:	b580      	push	{r7, lr}
 80003a4:	b084      	sub	sp, #16
 80003a6:	af00      	add	r7, sp, #0
 80003a8:	6078      	str	r0, [r7, #4]
 80003aa:	6039      	str	r1, [r7, #0]
	uint8_t	data;
	uint8_t	read;

	if(SF>12)
 80003ac:	683b      	ldr	r3, [r7, #0]
 80003ae:	2b0c      	cmp	r3, #12
 80003b0:	dd01      	ble.n	80003b6 <LoRa_setSpreadingFactor+0x14>
		SF = 12;
 80003b2:	230c      	movs	r3, #12
 80003b4:	603b      	str	r3, [r7, #0]
	if(SF<7)
 80003b6:	683b      	ldr	r3, [r7, #0]
 80003b8:	2b06      	cmp	r3, #6
 80003ba:	dc01      	bgt.n	80003c0 <LoRa_setSpreadingFactor+0x1e>
		SF = 7;
 80003bc:	2307      	movs	r3, #7
 80003be:	603b      	str	r3, [r7, #0]

	read = LoRa_read(_LoRa, RegModemConfig2);
 80003c0:	211e      	movs	r1, #30
 80003c2:	6878      	ldr	r0, [r7, #4]
 80003c4:	f000 f889 	bl	80004da <LoRa_read>
 80003c8:	4603      	mov	r3, r0
 80003ca:	73fb      	strb	r3, [r7, #15]
	HAL_Delay(10);
 80003cc:	200a      	movs	r0, #10
 80003ce:	f000 fc45 	bl	8000c5c <HAL_Delay>

	data = (SF << 4) + (read & 0x0F);
 80003d2:	683b      	ldr	r3, [r7, #0]
 80003d4:	b2db      	uxtb	r3, r3
 80003d6:	011b      	lsls	r3, r3, #4
 80003d8:	b2da      	uxtb	r2, r3
 80003da:	7bfb      	ldrb	r3, [r7, #15]
 80003dc:	f003 030f 	and.w	r3, r3, #15
 80003e0:	b2db      	uxtb	r3, r3
 80003e2:	4413      	add	r3, r2
 80003e4:	73bb      	strb	r3, [r7, #14]
	LoRa_write(_LoRa, RegModemConfig2, data);
 80003e6:	7bbb      	ldrb	r3, [r7, #14]
 80003e8:	461a      	mov	r2, r3
 80003ea:	211e      	movs	r1, #30
 80003ec:	6878      	ldr	r0, [r7, #4]
 80003ee:	f000 f88e 	bl	800050e <LoRa_write>
	HAL_Delay(10);
 80003f2:	200a      	movs	r0, #10
 80003f4:	f000 fc32 	bl	8000c5c <HAL_Delay>
}
 80003f8:	bf00      	nop
 80003fa:	3710      	adds	r7, #16
 80003fc:	46bd      	mov	sp, r7
 80003fe:	bd80      	pop	{r7, pc}

08000400 <LoRa_setPower>:
			LoRa* LoRa        --> LoRa object handler
			int   power       --> desired power like POWER_17db

		returns     : Nothing
\* ----------------------------------------------------------------------------- */
void LoRa_setPower(LoRa* _LoRa, uint8_t power){
 8000400:	b580      	push	{r7, lr}
 8000402:	b082      	sub	sp, #8
 8000404:	af00      	add	r7, sp, #0
 8000406:	6078      	str	r0, [r7, #4]
 8000408:	460b      	mov	r3, r1
 800040a:	70fb      	strb	r3, [r7, #3]
	LoRa_write(_LoRa, RegPaConfig, power);
 800040c:	78fb      	ldrb	r3, [r7, #3]
 800040e:	461a      	mov	r2, r3
 8000410:	2109      	movs	r1, #9
 8000412:	6878      	ldr	r0, [r7, #4]
 8000414:	f000 f87b 	bl	800050e <LoRa_write>
	HAL_Delay(10);
 8000418:	200a      	movs	r0, #10
 800041a:	f000 fc1f 	bl	8000c5c <HAL_Delay>
}
 800041e:	bf00      	nop
 8000420:	3708      	adds	r7, #8
 8000422:	46bd      	mov	sp, r7
 8000424:	bd80      	pop	{r7, pc}
	...

08000428 <LoRa_setOCP>:
			LoRa* LoRa        --> LoRa object handler
			int   current     --> desired max currnet in mA, e.g 120

		returns     : Nothing
\* ----------------------------------------------------------------------------- */
void LoRa_setOCP(LoRa* _LoRa, uint8_t current){
 8000428:	b580      	push	{r7, lr}
 800042a:	b084      	sub	sp, #16
 800042c:	af00      	add	r7, sp, #0
 800042e:	6078      	str	r0, [r7, #4]
 8000430:	460b      	mov	r3, r1
 8000432:	70fb      	strb	r3, [r7, #3]
	uint8_t	OcpTrim = 0;
 8000434:	2300      	movs	r3, #0
 8000436:	73fb      	strb	r3, [r7, #15]

	if(current<45)
 8000438:	78fb      	ldrb	r3, [r7, #3]
 800043a:	2b2c      	cmp	r3, #44	; 0x2c
 800043c:	d801      	bhi.n	8000442 <LoRa_setOCP+0x1a>
		current = 45;
 800043e:	232d      	movs	r3, #45	; 0x2d
 8000440:	70fb      	strb	r3, [r7, #3]
	if(current>240)
 8000442:	78fb      	ldrb	r3, [r7, #3]
 8000444:	2bf0      	cmp	r3, #240	; 0xf0
 8000446:	d901      	bls.n	800044c <LoRa_setOCP+0x24>
		current = 240;
 8000448:	23f0      	movs	r3, #240	; 0xf0
 800044a:	70fb      	strb	r3, [r7, #3]

	if(current <= 120)
 800044c:	78fb      	ldrb	r3, [r7, #3]
 800044e:	2b78      	cmp	r3, #120	; 0x78
 8000450:	d809      	bhi.n	8000466 <LoRa_setOCP+0x3e>
		OcpTrim = (current - 45)/5;
 8000452:	78fb      	ldrb	r3, [r7, #3]
 8000454:	3b2d      	subs	r3, #45	; 0x2d
 8000456:	4a12      	ldr	r2, [pc, #72]	; (80004a0 <LoRa_setOCP+0x78>)
 8000458:	fb82 1203 	smull	r1, r2, r2, r3
 800045c:	1052      	asrs	r2, r2, #1
 800045e:	17db      	asrs	r3, r3, #31
 8000460:	1ad3      	subs	r3, r2, r3
 8000462:	73fb      	strb	r3, [r7, #15]
 8000464:	e00b      	b.n	800047e <LoRa_setOCP+0x56>
	else if(current <= 240)
 8000466:	78fb      	ldrb	r3, [r7, #3]
 8000468:	2bf0      	cmp	r3, #240	; 0xf0
 800046a:	d808      	bhi.n	800047e <LoRa_setOCP+0x56>
		OcpTrim = (current + 30)/10;
 800046c:	78fb      	ldrb	r3, [r7, #3]
 800046e:	331e      	adds	r3, #30
 8000470:	4a0b      	ldr	r2, [pc, #44]	; (80004a0 <LoRa_setOCP+0x78>)
 8000472:	fb82 1203 	smull	r1, r2, r2, r3
 8000476:	1092      	asrs	r2, r2, #2
 8000478:	17db      	asrs	r3, r3, #31
 800047a:	1ad3      	subs	r3, r2, r3
 800047c:	73fb      	strb	r3, [r7, #15]

	OcpTrim = OcpTrim + (1 << 5);
 800047e:	7bfb      	ldrb	r3, [r7, #15]
 8000480:	3320      	adds	r3, #32
 8000482:	73fb      	strb	r3, [r7, #15]
	LoRa_write(_LoRa, RegOcp, OcpTrim);
 8000484:	7bfb      	ldrb	r3, [r7, #15]
 8000486:	461a      	mov	r2, r3
 8000488:	210b      	movs	r1, #11
 800048a:	6878      	ldr	r0, [r7, #4]
 800048c:	f000 f83f 	bl	800050e <LoRa_write>
	HAL_Delay(10);
 8000490:	200a      	movs	r0, #10
 8000492:	f000 fbe3 	bl	8000c5c <HAL_Delay>
}
 8000496:	bf00      	nop
 8000498:	3710      	adds	r7, #16
 800049a:	46bd      	mov	sp, r7
 800049c:	bd80      	pop	{r7, pc}
 800049e:	bf00      	nop
 80004a0:	66666667 	.word	0x66666667

080004a4 <LoRa_setTOMsb_setCRCon>:
		arguments   :
			LoRa* LoRa        --> LoRa object handler

		returns     : Nothing
\* ----------------------------------------------------------------------------- */
void LoRa_setTOMsb_setCRCon(LoRa* _LoRa){
 80004a4:	b580      	push	{r7, lr}
 80004a6:	b084      	sub	sp, #16
 80004a8:	af00      	add	r7, sp, #0
 80004aa:	6078      	str	r0, [r7, #4]
	uint8_t read, data;

	read = LoRa_read(_LoRa, RegModemConfig2);
 80004ac:	211e      	movs	r1, #30
 80004ae:	6878      	ldr	r0, [r7, #4]
 80004b0:	f000 f813 	bl	80004da <LoRa_read>
 80004b4:	4603      	mov	r3, r0
 80004b6:	73fb      	strb	r3, [r7, #15]

	data = read | 0x07;
 80004b8:	7bfb      	ldrb	r3, [r7, #15]
 80004ba:	f043 0307 	orr.w	r3, r3, #7
 80004be:	73bb      	strb	r3, [r7, #14]
	LoRa_write(_LoRa, RegModemConfig2, data);\
 80004c0:	7bbb      	ldrb	r3, [r7, #14]
 80004c2:	461a      	mov	r2, r3
 80004c4:	211e      	movs	r1, #30
 80004c6:	6878      	ldr	r0, [r7, #4]
 80004c8:	f000 f821 	bl	800050e <LoRa_write>
	HAL_Delay(10);
 80004cc:	200a      	movs	r0, #10
 80004ce:	f000 fbc5 	bl	8000c5c <HAL_Delay>
}
 80004d2:	bf00      	nop
 80004d4:	3710      	adds	r7, #16
 80004d6:	46bd      	mov	sp, r7
 80004d8:	bd80      	pop	{r7, pc}

080004da <LoRa_read>:
			LoRa*   LoRa        --> LoRa object handler
			uint8_t address     -->	address of the register e.g 0x1D

		returns     : register value
\* ----------------------------------------------------------------------------- */
uint8_t LoRa_read(LoRa* _LoRa, uint8_t address){
 80004da:	b580      	push	{r7, lr}
 80004dc:	b086      	sub	sp, #24
 80004de:	af02      	add	r7, sp, #8
 80004e0:	6078      	str	r0, [r7, #4]
 80004e2:	460b      	mov	r3, r1
 80004e4:	70fb      	strb	r3, [r7, #3]
	uint8_t read_data;
	uint8_t data_addr;

	data_addr = address & 0x7F;
 80004e6:	78fb      	ldrb	r3, [r7, #3]
 80004e8:	f003 037f 	and.w	r3, r3, #127	; 0x7f
 80004ec:	b2db      	uxtb	r3, r3
 80004ee:	73bb      	strb	r3, [r7, #14]
	LoRa_readReg(_LoRa, &data_addr, 1, &read_data, 1);
 80004f0:	f107 030f 	add.w	r3, r7, #15
 80004f4:	f107 010e 	add.w	r1, r7, #14
 80004f8:	2201      	movs	r2, #1
 80004fa:	9200      	str	r2, [sp, #0]
 80004fc:	2201      	movs	r2, #1
 80004fe:	6878      	ldr	r0, [r7, #4]
 8000500:	f7ff fea3 	bl	800024a <LoRa_readReg>
	//HAL_Delay(5);

	return read_data;
 8000504:	7bfb      	ldrb	r3, [r7, #15]
}
 8000506:	4618      	mov	r0, r3
 8000508:	3710      	adds	r7, #16
 800050a:	46bd      	mov	sp, r7
 800050c:	bd80      	pop	{r7, pc}

0800050e <LoRa_write>:
			uint8_t address     -->	address of the register e.g 0x1D
			uint8_t value       --> value that you want to write

		returns     : Nothing
\* ----------------------------------------------------------------------------- */
void LoRa_write(LoRa* _LoRa, uint8_t address, uint8_t value){
 800050e:	b580      	push	{r7, lr}
 8000510:	b086      	sub	sp, #24
 8000512:	af02      	add	r7, sp, #8
 8000514:	6078      	str	r0, [r7, #4]
 8000516:	460b      	mov	r3, r1
 8000518:	70fb      	strb	r3, [r7, #3]
 800051a:	4613      	mov	r3, r2
 800051c:	70bb      	strb	r3, [r7, #2]
	uint8_t data;
	uint8_t addr;

	addr = address | 0x80;
 800051e:	78fb      	ldrb	r3, [r7, #3]
 8000520:	f063 037f 	orn	r3, r3, #127	; 0x7f
 8000524:	b2db      	uxtb	r3, r3
 8000526:	73bb      	strb	r3, [r7, #14]
	data = value;
 8000528:	78bb      	ldrb	r3, [r7, #2]
 800052a:	73fb      	strb	r3, [r7, #15]
	LoRa_writeReg(_LoRa, &addr, 1, &data, 1);
 800052c:	f107 030f 	add.w	r3, r7, #15
 8000530:	f107 010e 	add.w	r1, r7, #14
 8000534:	2201      	movs	r2, #1
 8000536:	9200      	str	r2, [sp, #0]
 8000538:	2201      	movs	r2, #1
 800053a:	6878      	ldr	r0, [r7, #4]
 800053c:	f7ff fec3 	bl	80002c6 <LoRa_writeReg>
	//HAL_Delay(5);
}
 8000540:	bf00      	nop
 8000542:	3710      	adds	r7, #16
 8000544:	46bd      	mov	sp, r7
 8000546:	bd80      	pop	{r7, pc}

08000548 <LoRa_isvalid>:
		arguments   :
			LoRa* LoRa --> LoRa object handler

		returns     : returns 1 if all of the values were given, otherwise returns 0
\* ----------------------------------------------------------------------------- */
uint8_t LoRa_isvalid(LoRa* _LoRa){
 8000548:	b480      	push	{r7}
 800054a:	b083      	sub	sp, #12
 800054c:	af00      	add	r7, sp, #0
 800054e:	6078      	str	r0, [r7, #4]

	return 1;
 8000550:	2301      	movs	r3, #1
}
 8000552:	4618      	mov	r0, r3
 8000554:	370c      	adds	r7, #12
 8000556:	46bd      	mov	sp, r7
 8000558:	bc80      	pop	{r7}
 800055a:	4770      	bx	lr

0800055c <LoRa_startReceiving>:
		arguments   :
			LoRa*    LoRa     --> LoRa object handler

		returns     : Nothing
\* ----------------------------------------------------------------------------- */
void LoRa_startReceiving(LoRa* _LoRa){
 800055c:	b580      	push	{r7, lr}
 800055e:	b082      	sub	sp, #8
 8000560:	af00      	add	r7, sp, #0
 8000562:	6078      	str	r0, [r7, #4]
	LoRa_gotoMode(_LoRa, RXCONTIN_MODE);
 8000564:	2105      	movs	r1, #5
 8000566:	6878      	ldr	r0, [r7, #4]
 8000568:	f7ff fe0e 	bl	8000188 <LoRa_gotoMode>
}
 800056c:	bf00      	nop
 800056e:	3708      	adds	r7, #8
 8000570:	46bd      	mov	sp, r7
 8000572:	bd80      	pop	{r7, pc}

08000574 <LoRa_init>:
		arguments   :
			LoRa* LoRa        --> LoRa object handler

		returns     : Nothing
\* ----------------------------------------------------------------------------- */
uint16_t LoRa_init(LoRa* _LoRa){
 8000574:	b580      	push	{r7, lr}
 8000576:	b084      	sub	sp, #16
 8000578:	af00      	add	r7, sp, #0
 800057a:	6078      	str	r0, [r7, #4]
	uint8_t    data;
	uint8_t    read;

	if(LoRa_isvalid(_LoRa)){
 800057c:	6878      	ldr	r0, [r7, #4]
 800057e:	f7ff ffe3 	bl	8000548 <LoRa_isvalid>
 8000582:	4603      	mov	r3, r0
 8000584:	2b00      	cmp	r3, #0
 8000586:	f000 8093 	beq.w	80006b0 <LoRa_init+0x13c>
		// goto sleep mode:
			LoRa_gotoMode(_LoRa, SLEEP_MODE);
 800058a:	2100      	movs	r1, #0
 800058c:	6878      	ldr	r0, [r7, #4]
 800058e:	f7ff fdfb 	bl	8000188 <LoRa_gotoMode>
			HAL_Delay(10);
 8000592:	200a      	movs	r0, #10
 8000594:	f000 fb62 	bl	8000c5c <HAL_Delay>

		// turn on LoRa mode:
			read = LoRa_read(_LoRa, RegOpMode);
 8000598:	2101      	movs	r1, #1
 800059a:	6878      	ldr	r0, [r7, #4]
 800059c:	f7ff ff9d 	bl	80004da <LoRa_read>
 80005a0:	4603      	mov	r3, r0
 80005a2:	73fb      	strb	r3, [r7, #15]
			HAL_Delay(10);
 80005a4:	200a      	movs	r0, #10
 80005a6:	f000 fb59 	bl	8000c5c <HAL_Delay>
			data = read | 0x80;
 80005aa:	7bfb      	ldrb	r3, [r7, #15]
 80005ac:	f063 037f 	orn	r3, r3, #127	; 0x7f
 80005b0:	73bb      	strb	r3, [r7, #14]
			LoRa_write(_LoRa, RegOpMode, data);
 80005b2:	7bbb      	ldrb	r3, [r7, #14]
 80005b4:	461a      	mov	r2, r3
 80005b6:	2101      	movs	r1, #1
 80005b8:	6878      	ldr	r0, [r7, #4]
 80005ba:	f7ff ffa8 	bl	800050e <LoRa_write>
			HAL_Delay(100);
 80005be:	2064      	movs	r0, #100	; 0x64
 80005c0:	f000 fb4c 	bl	8000c5c <HAL_Delay>

		// set frequency:
			LoRa_setFrequency(_LoRa, _LoRa->frequency);
 80005c4:	687b      	ldr	r3, [r7, #4]
 80005c6:	6a1b      	ldr	r3, [r3, #32]
 80005c8:	4619      	mov	r1, r3
 80005ca:	6878      	ldr	r0, [r7, #4]
 80005cc:	f7ff feb9 	bl	8000342 <LoRa_setFrequency>

		// set output power gain:
			LoRa_setPower(_LoRa, _LoRa->power);
 80005d0:	687b      	ldr	r3, [r7, #4]
 80005d2:	f893 302a 	ldrb.w	r3, [r3, #42]	; 0x2a
 80005d6:	4619      	mov	r1, r3
 80005d8:	6878      	ldr	r0, [r7, #4]
 80005da:	f7ff ff11 	bl	8000400 <LoRa_setPower>

		// set over current protection:
			LoRa_setOCP(_LoRa, _LoRa->overCurrentProtection);
 80005de:	687b      	ldr	r3, [r7, #4]
 80005e0:	f893 302b 	ldrb.w	r3, [r3, #43]	; 0x2b
 80005e4:	4619      	mov	r1, r3
 80005e6:	6878      	ldr	r0, [r7, #4]
 80005e8:	f7ff ff1e 	bl	8000428 <LoRa_setOCP>

		// set LNA gain:
			LoRa_write(_LoRa, RegLna, 0x23);
 80005ec:	2223      	movs	r2, #35	; 0x23
 80005ee:	210c      	movs	r1, #12
 80005f0:	6878      	ldr	r0, [r7, #4]
 80005f2:	f7ff ff8c 	bl	800050e <LoRa_write>

		// set spreading factor, CRC on, and Timeout Msb:
			LoRa_setTOMsb_setCRCon(_LoRa);
 80005f6:	6878      	ldr	r0, [r7, #4]
 80005f8:	f7ff ff54 	bl	80004a4 <LoRa_setTOMsb_setCRCon>
			LoRa_setSpreadingFactor(_LoRa, _LoRa->spredingFactor);
 80005fc:	687b      	ldr	r3, [r7, #4]
 80005fe:	f893 3024 	ldrb.w	r3, [r3, #36]	; 0x24
 8000602:	4619      	mov	r1, r3
 8000604:	6878      	ldr	r0, [r7, #4]
 8000606:	f7ff fecc 	bl	80003a2 <LoRa_setSpreadingFactor>

		// set Timeout Lsb:
			LoRa_write(_LoRa, RegSymbTimeoutL, 0xFF);
 800060a:	22ff      	movs	r2, #255	; 0xff
 800060c:	211f      	movs	r1, #31
 800060e:	6878      	ldr	r0, [r7, #4]
 8000610:	f7ff ff7d 	bl	800050e <LoRa_write>

		// set bandwidth, coding rate and expilicit mode:
			// 8 bit RegModemConfig --> | X | X | X | X | X | X | X | X |
			//       bits represent --> |   bandwidth   |     CR    |I/E|
			data = 0;
 8000614:	2300      	movs	r3, #0
 8000616:	73bb      	strb	r3, [r7, #14]
			data = (_LoRa->bandWidth << 4) + (_LoRa->crcRate << 1);
 8000618:	687b      	ldr	r3, [r7, #4]
 800061a:	f893 3025 	ldrb.w	r3, [r3, #37]	; 0x25
 800061e:	011b      	lsls	r3, r3, #4
 8000620:	b2da      	uxtb	r2, r3
 8000622:	687b      	ldr	r3, [r7, #4]
 8000624:	f893 3026 	ldrb.w	r3, [r3, #38]	; 0x26
 8000628:	005b      	lsls	r3, r3, #1
 800062a:	b2db      	uxtb	r3, r3
 800062c:	4413      	add	r3, r2
 800062e:	73bb      	strb	r3, [r7, #14]
			LoRa_write(_LoRa, RegModemConfig1, data);
 8000630:	7bbb      	ldrb	r3, [r7, #14]
 8000632:	461a      	mov	r2, r3
 8000634:	211d      	movs	r1, #29
 8000636:	6878      	ldr	r0, [r7, #4]
 8000638:	f7ff ff69 	bl	800050e <LoRa_write>

		// set preamble:
			LoRa_write(_LoRa, RegPreambleMsb, _LoRa->preamble >> 8);
 800063c:	687b      	ldr	r3, [r7, #4]
 800063e:	8d1b      	ldrh	r3, [r3, #40]	; 0x28
 8000640:	0a1b      	lsrs	r3, r3, #8
 8000642:	b29b      	uxth	r3, r3
 8000644:	b2db      	uxtb	r3, r3
 8000646:	461a      	mov	r2, r3
 8000648:	2120      	movs	r1, #32
 800064a:	6878      	ldr	r0, [r7, #4]
 800064c:	f7ff ff5f 	bl	800050e <LoRa_write>
			LoRa_write(_LoRa, RegPreambleLsb, _LoRa->preamble >> 0);
 8000650:	687b      	ldr	r3, [r7, #4]
 8000652:	8d1b      	ldrh	r3, [r3, #40]	; 0x28
 8000654:	b2db      	uxtb	r3, r3
 8000656:	461a      	mov	r2, r3
 8000658:	2121      	movs	r1, #33	; 0x21
 800065a:	6878      	ldr	r0, [r7, #4]
 800065c:	f7ff ff57 	bl	800050e <LoRa_write>

		// DIO mapping:   --> DIO: RxDone
			read = LoRa_read(_LoRa, RegDioMapping1);
 8000660:	2140      	movs	r1, #64	; 0x40
 8000662:	6878      	ldr	r0, [r7, #4]
 8000664:	f7ff ff39 	bl	80004da <LoRa_read>
 8000668:	4603      	mov	r3, r0
 800066a:	73fb      	strb	r3, [r7, #15]
			data = read | 0x3F;
 800066c:	7bfb      	ldrb	r3, [r7, #15]
 800066e:	f043 033f 	orr.w	r3, r3, #63	; 0x3f
 8000672:	73bb      	strb	r3, [r7, #14]
			LoRa_write(_LoRa, RegDioMapping1, data);
 8000674:	7bbb      	ldrb	r3, [r7, #14]
 8000676:	461a      	mov	r2, r3
 8000678:	2140      	movs	r1, #64	; 0x40
 800067a:	6878      	ldr	r0, [r7, #4]
 800067c:	f7ff ff47 	bl	800050e <LoRa_write>

		// goto standby mode:
			LoRa_gotoMode(_LoRa, STNBY_MODE);
 8000680:	2101      	movs	r1, #1
 8000682:	6878      	ldr	r0, [r7, #4]
 8000684:	f7ff fd80 	bl	8000188 <LoRa_gotoMode>
			_LoRa->current_mode = STNBY_MODE;
 8000688:	687b      	ldr	r3, [r7, #4]
 800068a:	2201      	movs	r2, #1
 800068c:	61da      	str	r2, [r3, #28]
			HAL_Delay(10);
 800068e:	200a      	movs	r0, #10
 8000690:	f000 fae4 	bl	8000c5c <HAL_Delay>

			read = LoRa_read(_LoRa, RegVersion);
 8000694:	2142      	movs	r1, #66	; 0x42
 8000696:	6878      	ldr	r0, [r7, #4]
 8000698:	f7ff ff1f 	bl	80004da <LoRa_read>
 800069c:	4603      	mov	r3, r0
 800069e:	73fb      	strb	r3, [r7, #15]
			if(read == 0x12)
 80006a0:	7bfb      	ldrb	r3, [r7, #15]
 80006a2:	2b12      	cmp	r3, #18
 80006a4:	d101      	bne.n	80006aa <LoRa_init+0x136>
				return LORA_OK;
 80006a6:	23c8      	movs	r3, #200	; 0xc8
 80006a8:	e004      	b.n	80006b4 <LoRa_init+0x140>
			else
				return LORA_NOT_FOUND;
 80006aa:	f44f 73ca 	mov.w	r3, #404	; 0x194
 80006ae:	e001      	b.n	80006b4 <LoRa_init+0x140>
	}
	else {
		return LORA_UNAVAILABLE;
 80006b0:	f240 13f7 	movw	r3, #503	; 0x1f7
	}
}
 80006b4:	4618      	mov	r0, r3
 80006b6:	3710      	adds	r7, #16
 80006b8:	46bd      	mov	sp, r7
 80006ba:	bd80      	pop	{r7, pc}

080006bc <main>:
/**
  * @brief  The application entry point.
  * @retval int
  */
int main(void)
{
 80006bc:	b580      	push	{r7, lr}
 80006be:	b082      	sub	sp, #8
 80006c0:	af00      	add	r7, sp, #0
  /* USER CODE END 1 */

  /* MCU Configuration--------------------------------------------------------*/

  /* Reset of all peripherals, Initializes the Flash interface and the Systick. */
  HAL_Init();
 80006c2:	f000 fa69 	bl	8000b98 <HAL_Init>

  /* USER CODE BEGIN Init */
	myLoRa.hSPIx                 = &hspi1;
 80006c6:	4b2e      	ldr	r3, [pc, #184]	; (8000780 <main+0xc4>)
 80006c8:	4a2e      	ldr	r2, [pc, #184]	; (8000784 <main+0xc8>)
 80006ca:	619a      	str	r2, [r3, #24]
	myLoRa.CS_port               = GPIOA;
 80006cc:	4b2c      	ldr	r3, [pc, #176]	; (8000780 <main+0xc4>)
 80006ce:	4a2e      	ldr	r2, [pc, #184]	; (8000788 <main+0xcc>)
 80006d0:	601a      	str	r2, [r3, #0]
	myLoRa.CS_pin                = GPIO_PIN_3;
 80006d2:	4b2b      	ldr	r3, [pc, #172]	; (8000780 <main+0xc4>)
 80006d4:	2208      	movs	r2, #8
 80006d6:	809a      	strh	r2, [r3, #4]
	myLoRa.reset_port            = GPIOA;
 80006d8:	4b29      	ldr	r3, [pc, #164]	; (8000780 <main+0xc4>)
 80006da:	4a2b      	ldr	r2, [pc, #172]	; (8000788 <main+0xcc>)
 80006dc:	609a      	str	r2, [r3, #8]
	myLoRa.reset_pin             = GPIO_PIN_10;
 80006de:	4b28      	ldr	r3, [pc, #160]	; (8000780 <main+0xc4>)
 80006e0:	f44f 6280 	mov.w	r2, #1024	; 0x400
 80006e4:	819a      	strh	r2, [r3, #12]
	myLoRa.DIO0_port						 = GPIOA;
 80006e6:	4b26      	ldr	r3, [pc, #152]	; (8000780 <main+0xc4>)
 80006e8:	4a27      	ldr	r2, [pc, #156]	; (8000788 <main+0xcc>)
 80006ea:	611a      	str	r2, [r3, #16]
	myLoRa.DIO0_pin							 = GPIO_PIN_8;
 80006ec:	4b24      	ldr	r3, [pc, #144]	; (8000780 <main+0xc4>)
 80006ee:	f44f 7280 	mov.w	r2, #256	; 0x100
 80006f2:	829a      	strh	r2, [r3, #20]

	myLoRa.frequency             = 433;							  // default = 433 MHz
 80006f4:	4b22      	ldr	r3, [pc, #136]	; (8000780 <main+0xc4>)
 80006f6:	f240 12b1 	movw	r2, #433	; 0x1b1
 80006fa:	621a      	str	r2, [r3, #32]
	myLoRa.spredingFactor        = SF_7;							// default = SF_7
 80006fc:	4b20      	ldr	r3, [pc, #128]	; (8000780 <main+0xc4>)
 80006fe:	2207      	movs	r2, #7
 8000700:	f883 2024 	strb.w	r2, [r3, #36]	; 0x24
	myLoRa.bandWidth			       = BW_125KHz;				  // default = BW_125KHz
 8000704:	4b1e      	ldr	r3, [pc, #120]	; (8000780 <main+0xc4>)
 8000706:	2207      	movs	r2, #7
 8000708:	f883 2025 	strb.w	r2, [r3, #37]	; 0x25
	myLoRa.crcRate				       = CR_4_5;						// default = CR_4_5
 800070c:	4b1c      	ldr	r3, [pc, #112]	; (8000780 <main+0xc4>)
 800070e:	2201      	movs	r2, #1
 8000710:	f883 2026 	strb.w	r2, [r3, #38]	; 0x26
	myLoRa.power					       = POWER_20db;				// default = 20db
 8000714:	4b1a      	ldr	r3, [pc, #104]	; (8000780 <main+0xc4>)
 8000716:	22ff      	movs	r2, #255	; 0xff
 8000718:	f883 202a 	strb.w	r2, [r3, #42]	; 0x2a
	myLoRa.overCurrentProtection = 120; 							// default = 100 mA
 800071c:	4b18      	ldr	r3, [pc, #96]	; (8000780 <main+0xc4>)
 800071e:	2278      	movs	r2, #120	; 0x78
 8000720:	f883 202b 	strb.w	r2, [r3, #43]	; 0x2b
	myLoRa.preamble				       = 10;		  					// default = 8;
 8000724:	4b16      	ldr	r3, [pc, #88]	; (8000780 <main+0xc4>)
 8000726:	220a      	movs	r2, #10
 8000728:	851a      	strh	r2, [r3, #40]	; 0x28
    // lora.bandWidth = BW_125KHz;
    // lora.crcRate = CR_4_5;
  /* USER CODE END Init */

  /* Configure the system clock */
  SystemClock_Config();
 800072a:	f000 f833 	bl	8000794 <SystemClock_Config>
     RST --> PB10
     */
  /* USER CODE END SysInit */

  /* Initialize all configured peripherals */
  MX_GPIO_Init();
 800072e:	f000 f8cd 	bl	80008cc <MX_GPIO_Init>
  MX_SPI1_Init();
 8000732:	f000 f86b 	bl	800080c <MX_SPI1_Init>
  MX_USART1_UART_Init();
 8000736:	f000 f89f 	bl	8000878 <MX_USART1_UART_Init>

LoRa_reset(&myLoRa);
 800073a:	4811      	ldr	r0, [pc, #68]	; (8000780 <main+0xc4>)
 800073c:	f7ff fd06 	bl	800014c <LoRa_reset>
	LoRa_init(&myLoRa);
 8000740:	480f      	ldr	r0, [pc, #60]	; (8000780 <main+0xc4>)
 8000742:	f7ff ff17 	bl	8000574 <LoRa_init>
	LoRa_startReceiving(&myLoRa);
 8000746:	480e      	ldr	r0, [pc, #56]	; (8000780 <main+0xc4>)
 8000748:	f7ff ff08 	bl	800055c <LoRa_startReceiving>
  /* USER CODE END 2 */

  /* Infinite loop */
  /* USER CODE BEGIN WHILE */
  uint8_t ret;
  uint8_t buf[7] = {0x12, 0x34, 0x45, 0x34, 0x45, 0x34, 0x45};
 800074c:	4a0f      	ldr	r2, [pc, #60]	; (800078c <main+0xd0>)
 800074e:	463b      	mov	r3, r7
 8000750:	e892 0003 	ldmia.w	r2, {r0, r1}
 8000754:	6018      	str	r0, [r3, #0]
 8000756:	3304      	adds	r3, #4
 8000758:	8019      	strh	r1, [r3, #0]
 800075a:	3302      	adds	r3, #2
 800075c:	0c0a      	lsrs	r2, r1, #16
 800075e:	701a      	strb	r2, [r3, #0]
  while (1)
  {
    /* USER CODE END WHILE */

    /* USER CODE BEGIN 3 */
    HAL_GPIO_WritePin(GPIOB, GPIO_PIN_0, 0);
 8000760:	2200      	movs	r2, #0
 8000762:	2101      	movs	r1, #1
 8000764:	480a      	ldr	r0, [pc, #40]	; (8000790 <main+0xd4>)
 8000766:	f000 fcfd 	bl	8001164 <HAL_GPIO_WritePin>
//    LoRa_transmit(&myLoRa, buf, 7, 100);
    HAL_Delay(1000);
 800076a:	f44f 707a 	mov.w	r0, #1000	; 0x3e8
 800076e:	f000 fa75 	bl	8000c5c <HAL_Delay>
    HAL_GPIO_WritePin(GPIOB, GPIO_PIN_0, 1);
 8000772:	2201      	movs	r2, #1
 8000774:	2101      	movs	r1, #1
 8000776:	4806      	ldr	r0, [pc, #24]	; (8000790 <main+0xd4>)
 8000778:	f000 fcf4 	bl	8001164 <HAL_GPIO_WritePin>
    HAL_GPIO_WritePin(GPIOB, GPIO_PIN_0, 0);
 800077c:	e7f0      	b.n	8000760 <main+0xa4>
 800077e:	bf00      	nop
 8000780:	200000c8 	.word	0x200000c8
 8000784:	20000028 	.word	0x20000028
 8000788:	40010800 	.word	0x40010800
 800078c:	08002708 	.word	0x08002708
 8000790:	40010c00 	.word	0x40010c00

08000794 <SystemClock_Config>:
/**
  * @brief System Clock Configuration
  * @retval None
  */
void SystemClock_Config(void)
{
 8000794:	b580      	push	{r7, lr}
 8000796:	b090      	sub	sp, #64	; 0x40
 8000798:	af00      	add	r7, sp, #0
  RCC_OscInitTypeDef RCC_OscInitStruct = {0};
 800079a:	f107 0318 	add.w	r3, r7, #24
 800079e:	2228      	movs	r2, #40	; 0x28
 80007a0:	2100      	movs	r1, #0
 80007a2:	4618      	mov	r0, r3
 80007a4:	f001 ff9c 	bl	80026e0 <memset>
  RCC_ClkInitTypeDef RCC_ClkInitStruct = {0};
 80007a8:	1d3b      	adds	r3, r7, #4
 80007aa:	2200      	movs	r2, #0
 80007ac:	601a      	str	r2, [r3, #0]
 80007ae:	605a      	str	r2, [r3, #4]
 80007b0:	609a      	str	r2, [r3, #8]
 80007b2:	60da      	str	r2, [r3, #12]
 80007b4:	611a      	str	r2, [r3, #16]

  /** Initializes the RCC Oscillators according to the specified parameters
  * in the RCC_OscInitTypeDef structure.
  */
  RCC_OscInitStruct.OscillatorType = RCC_OSCILLATORTYPE_HSI;
 80007b6:	2302      	movs	r3, #2
 80007b8:	61bb      	str	r3, [r7, #24]
  RCC_OscInitStruct.HSIState = RCC_HSI_ON;
 80007ba:	2301      	movs	r3, #1
 80007bc:	62bb      	str	r3, [r7, #40]	; 0x28
  RCC_OscInitStruct.HSICalibrationValue = RCC_HSICALIBRATION_DEFAULT;
 80007be:	2310      	movs	r3, #16
 80007c0:	62fb      	str	r3, [r7, #44]	; 0x2c
  RCC_OscInitStruct.PLL.PLLState = RCC_PLL_NONE;
 80007c2:	2300      	movs	r3, #0
 80007c4:	637b      	str	r3, [r7, #52]	; 0x34
  if (HAL_RCC_OscConfig(&RCC_OscInitStruct) != HAL_OK)
 80007c6:	f107 0318 	add.w	r3, r7, #24
 80007ca:	4618      	mov	r0, r3
 80007cc:	f000 fce2 	bl	8001194 <HAL_RCC_OscConfig>
 80007d0:	4603      	mov	r3, r0
 80007d2:	2b00      	cmp	r3, #0
 80007d4:	d001      	beq.n	80007da <SystemClock_Config+0x46>
  {
    Error_Handler();
 80007d6:	f000 f8cd 	bl	8000974 <Error_Handler>
  }

  /** Initializes the CPU, AHB and APB buses clocks
  */
  RCC_ClkInitStruct.ClockType = RCC_CLOCKTYPE_HCLK|RCC_CLOCKTYPE_SYSCLK
 80007da:	230f      	movs	r3, #15
 80007dc:	607b      	str	r3, [r7, #4]
                              |RCC_CLOCKTYPE_PCLK1|RCC_CLOCKTYPE_PCLK2;
  RCC_ClkInitStruct.SYSCLKSource = RCC_SYSCLKSOURCE_HSI;
 80007de:	2300      	movs	r3, #0
 80007e0:	60bb      	str	r3, [r7, #8]
  RCC_ClkInitStruct.AHBCLKDivider = RCC_SYSCLK_DIV1;
 80007e2:	2300      	movs	r3, #0
 80007e4:	60fb      	str	r3, [r7, #12]
  RCC_ClkInitStruct.APB1CLKDivider = RCC_HCLK_DIV1;
 80007e6:	2300      	movs	r3, #0
 80007e8:	613b      	str	r3, [r7, #16]
  RCC_ClkInitStruct.APB2CLKDivider = RCC_HCLK_DIV1;
 80007ea:	2300      	movs	r3, #0
 80007ec:	617b      	str	r3, [r7, #20]

  if (HAL_RCC_ClockConfig(&RCC_ClkInitStruct, FLASH_LATENCY_0) != HAL_OK)
 80007ee:	1d3b      	adds	r3, r7, #4
 80007f0:	2100      	movs	r1, #0
 80007f2:	4618      	mov	r0, r3
 80007f4:	f000 ff50 	bl	8001698 <HAL_RCC_ClockConfig>
 80007f8:	4603      	mov	r3, r0
 80007fa:	2b00      	cmp	r3, #0
 80007fc:	d001      	beq.n	8000802 <SystemClock_Config+0x6e>
  {
    Error_Handler();
 80007fe:	f000 f8b9 	bl	8000974 <Error_Handler>
  }
}
 8000802:	bf00      	nop
 8000804:	3740      	adds	r7, #64	; 0x40
 8000806:	46bd      	mov	sp, r7
 8000808:	bd80      	pop	{r7, pc}
	...

0800080c <MX_SPI1_Init>:
  * @brief SPI1 Initialization Function
  * @param None
  * @retval None
  */
static void MX_SPI1_Init(void)
{
 800080c:	b580      	push	{r7, lr}
 800080e:	af00      	add	r7, sp, #0

  /* USER CODE BEGIN SPI1_Init 1 */

  /* USER CODE END SPI1_Init 1 */
  /* SPI1 parameter configuration*/
  hspi1.Instance = SPI1;
 8000810:	4b17      	ldr	r3, [pc, #92]	; (8000870 <MX_SPI1_Init+0x64>)
 8000812:	4a18      	ldr	r2, [pc, #96]	; (8000874 <MX_SPI1_Init+0x68>)
 8000814:	601a      	str	r2, [r3, #0]
  hspi1.Init.Mode = SPI_MODE_MASTER;
 8000816:	4b16      	ldr	r3, [pc, #88]	; (8000870 <MX_SPI1_Init+0x64>)
 8000818:	f44f 7282 	mov.w	r2, #260	; 0x104
 800081c:	605a      	str	r2, [r3, #4]
  hspi1.Init.Direction = SPI_DIRECTION_2LINES;
 800081e:	4b14      	ldr	r3, [pc, #80]	; (8000870 <MX_SPI1_Init+0x64>)
 8000820:	2200      	movs	r2, #0
 8000822:	609a      	str	r2, [r3, #8]
  hspi1.Init.DataSize = SPI_DATASIZE_8BIT;
 8000824:	4b12      	ldr	r3, [pc, #72]	; (8000870 <MX_SPI1_Init+0x64>)
 8000826:	2200      	movs	r2, #0
 8000828:	60da      	str	r2, [r3, #12]
  hspi1.Init.CLKPolarity = SPI_POLARITY_LOW;
 800082a:	4b11      	ldr	r3, [pc, #68]	; (8000870 <MX_SPI1_Init+0x64>)
 800082c:	2200      	movs	r2, #0
 800082e:	611a      	str	r2, [r3, #16]
  hspi1.Init.CLKPhase = SPI_PHASE_1EDGE;
 8000830:	4b0f      	ldr	r3, [pc, #60]	; (8000870 <MX_SPI1_Init+0x64>)
 8000832:	2200      	movs	r2, #0
 8000834:	615a      	str	r2, [r3, #20]
  hspi1.Init.NSS = SPI_NSS_SOFT;
 8000836:	4b0e      	ldr	r3, [pc, #56]	; (8000870 <MX_SPI1_Init+0x64>)
 8000838:	f44f 7200 	mov.w	r2, #512	; 0x200
 800083c:	619a      	str	r2, [r3, #24]
  hspi1.Init.BaudRatePrescaler = SPI_BAUDRATEPRESCALER_8;
 800083e:	4b0c      	ldr	r3, [pc, #48]	; (8000870 <MX_SPI1_Init+0x64>)
 8000840:	2210      	movs	r2, #16
 8000842:	61da      	str	r2, [r3, #28]
  hspi1.Init.FirstBit = SPI_FIRSTBIT_MSB;
 8000844:	4b0a      	ldr	r3, [pc, #40]	; (8000870 <MX_SPI1_Init+0x64>)
 8000846:	2200      	movs	r2, #0
 8000848:	621a      	str	r2, [r3, #32]
  hspi1.Init.TIMode = SPI_TIMODE_DISABLE;
 800084a:	4b09      	ldr	r3, [pc, #36]	; (8000870 <MX_SPI1_Init+0x64>)
 800084c:	2200      	movs	r2, #0
 800084e:	625a      	str	r2, [r3, #36]	; 0x24
  hspi1.Init.CRCCalculation = SPI_CRCCALCULATION_DISABLE;
 8000850:	4b07      	ldr	r3, [pc, #28]	; (8000870 <MX_SPI1_Init+0x64>)
 8000852:	2200      	movs	r2, #0
 8000854:	629a      	str	r2, [r3, #40]	; 0x28
  hspi1.Init.CRCPolynomial = 10;
 8000856:	4b06      	ldr	r3, [pc, #24]	; (8000870 <MX_SPI1_Init+0x64>)
 8000858:	220a      	movs	r2, #10
 800085a:	62da      	str	r2, [r3, #44]	; 0x2c
  if (HAL_SPI_Init(&hspi1) != HAL_OK)
 800085c:	4804      	ldr	r0, [pc, #16]	; (8000870 <MX_SPI1_Init+0x64>)
 800085e:	f001 f8a9 	bl	80019b4 <HAL_SPI_Init>
 8000862:	4603      	mov	r3, r0
 8000864:	2b00      	cmp	r3, #0
 8000866:	d001      	beq.n	800086c <MX_SPI1_Init+0x60>
  {
    Error_Handler();
 8000868:	f000 f884 	bl	8000974 <Error_Handler>
  }
  /* USER CODE BEGIN SPI1_Init 2 */

  /* USER CODE END SPI1_Init 2 */

}
 800086c:	bf00      	nop
 800086e:	bd80      	pop	{r7, pc}
 8000870:	20000028 	.word	0x20000028
 8000874:	40013000 	.word	0x40013000

08000878 <MX_USART1_UART_Init>:
  * @brief USART1 Initialization Function
  * @param None
  * @retval None
  */
static void MX_USART1_UART_Init(void)
{
 8000878:	b580      	push	{r7, lr}
 800087a:	af00      	add	r7, sp, #0
  /* USER CODE END USART1_Init 0 */

  /* USER CODE BEGIN USART1_Init 1 */

  /* USER CODE END USART1_Init 1 */
  huart1.Instance = USART1;
 800087c:	4b11      	ldr	r3, [pc, #68]	; (80008c4 <MX_USART1_UART_Init+0x4c>)
 800087e:	4a12      	ldr	r2, [pc, #72]	; (80008c8 <MX_USART1_UART_Init+0x50>)
 8000880:	601a      	str	r2, [r3, #0]
  huart1.Init.BaudRate = 115200;
 8000882:	4b10      	ldr	r3, [pc, #64]	; (80008c4 <MX_USART1_UART_Init+0x4c>)
 8000884:	f44f 32e1 	mov.w	r2, #115200	; 0x1c200
 8000888:	605a      	str	r2, [r3, #4]
  huart1.Init.WordLength = UART_WORDLENGTH_8B;
 800088a:	4b0e      	ldr	r3, [pc, #56]	; (80008c4 <MX_USART1_UART_Init+0x4c>)
 800088c:	2200      	movs	r2, #0
 800088e:	609a      	str	r2, [r3, #8]
  huart1.Init.StopBits = UART_STOPBITS_1;
 8000890:	4b0c      	ldr	r3, [pc, #48]	; (80008c4 <MX_USART1_UART_Init+0x4c>)
 8000892:	2200      	movs	r2, #0
 8000894:	60da      	str	r2, [r3, #12]
  huart1.Init.Parity = UART_PARITY_NONE;
 8000896:	4b0b      	ldr	r3, [pc, #44]	; (80008c4 <MX_USART1_UART_Init+0x4c>)
 8000898:	2200      	movs	r2, #0
 800089a:	611a      	str	r2, [r3, #16]
  huart1.Init.Mode = UART_MODE_TX_RX;
 800089c:	4b09      	ldr	r3, [pc, #36]	; (80008c4 <MX_USART1_UART_Init+0x4c>)
 800089e:	220c      	movs	r2, #12
 80008a0:	615a      	str	r2, [r3, #20]
  huart1.Init.HwFlowCtl = UART_HWCONTROL_NONE;
 80008a2:	4b08      	ldr	r3, [pc, #32]	; (80008c4 <MX_USART1_UART_Init+0x4c>)
 80008a4:	2200      	movs	r2, #0
 80008a6:	619a      	str	r2, [r3, #24]
  huart1.Init.OverSampling = UART_OVERSAMPLING_16;
 80008a8:	4b06      	ldr	r3, [pc, #24]	; (80008c4 <MX_USART1_UART_Init+0x4c>)
 80008aa:	2200      	movs	r2, #0
 80008ac:	61da      	str	r2, [r3, #28]
  if (HAL_UART_Init(&huart1) != HAL_OK)
 80008ae:	4805      	ldr	r0, [pc, #20]	; (80008c4 <MX_USART1_UART_Init+0x4c>)
 80008b0:	f001 fe14 	bl	80024dc <HAL_UART_Init>
 80008b4:	4603      	mov	r3, r0
 80008b6:	2b00      	cmp	r3, #0
 80008b8:	d001      	beq.n	80008be <MX_USART1_UART_Init+0x46>
  {
    Error_Handler();
 80008ba:	f000 f85b 	bl	8000974 <Error_Handler>
  }
  /* USER CODE BEGIN USART1_Init 2 */

  /* USER CODE END USART1_Init 2 */

}
 80008be:	bf00      	nop
 80008c0:	bd80      	pop	{r7, pc}
 80008c2:	bf00      	nop
 80008c4:	20000080 	.word	0x20000080
 80008c8:	40013800 	.word	0x40013800

080008cc <MX_GPIO_Init>:
  * @brief GPIO Initialization Function
  * @param None
  * @retval None
  */
static void MX_GPIO_Init(void)
{
 80008cc:	b580      	push	{r7, lr}
 80008ce:	b086      	sub	sp, #24
 80008d0:	af00      	add	r7, sp, #0
  GPIO_InitTypeDef GPIO_InitStruct = {0};
 80008d2:	f107 0308 	add.w	r3, r7, #8
 80008d6:	2200      	movs	r2, #0
 80008d8:	601a      	str	r2, [r3, #0]
 80008da:	605a      	str	r2, [r3, #4]
 80008dc:	609a      	str	r2, [r3, #8]
 80008de:	60da      	str	r2, [r3, #12]

  /* GPIO Ports Clock Enable */
  __HAL_RCC_GPIOA_CLK_ENABLE();
 80008e0:	4b21      	ldr	r3, [pc, #132]	; (8000968 <MX_GPIO_Init+0x9c>)
 80008e2:	699b      	ldr	r3, [r3, #24]
 80008e4:	4a20      	ldr	r2, [pc, #128]	; (8000968 <MX_GPIO_Init+0x9c>)
 80008e6:	f043 0304 	orr.w	r3, r3, #4
 80008ea:	6193      	str	r3, [r2, #24]
 80008ec:	4b1e      	ldr	r3, [pc, #120]	; (8000968 <MX_GPIO_Init+0x9c>)
 80008ee:	699b      	ldr	r3, [r3, #24]
 80008f0:	f003 0304 	and.w	r3, r3, #4
 80008f4:	607b      	str	r3, [r7, #4]
 80008f6:	687b      	ldr	r3, [r7, #4]
  __HAL_RCC_GPIOB_CLK_ENABLE();
 80008f8:	4b1b      	ldr	r3, [pc, #108]	; (8000968 <MX_GPIO_Init+0x9c>)
 80008fa:	699b      	ldr	r3, [r3, #24]
 80008fc:	4a1a      	ldr	r2, [pc, #104]	; (8000968 <MX_GPIO_Init+0x9c>)
 80008fe:	f043 0308 	orr.w	r3, r3, #8
 8000902:	6193      	str	r3, [r2, #24]
 8000904:	4b18      	ldr	r3, [pc, #96]	; (8000968 <MX_GPIO_Init+0x9c>)
 8000906:	699b      	ldr	r3, [r3, #24]
 8000908:	f003 0308 	and.w	r3, r3, #8
 800090c:	603b      	str	r3, [r7, #0]
 800090e:	683b      	ldr	r3, [r7, #0]

  /*Configure GPIO pin Output Level */
  HAL_GPIO_WritePin(GPIOA, GPIO_PIN_3, GPIO_PIN_RESET);
 8000910:	2200      	movs	r2, #0
 8000912:	2108      	movs	r1, #8
 8000914:	4815      	ldr	r0, [pc, #84]	; (800096c <MX_GPIO_Init+0xa0>)
 8000916:	f000 fc25 	bl	8001164 <HAL_GPIO_WritePin>

  /*Configure GPIO pin Output Level */
  HAL_GPIO_WritePin(GPIOB, GPIO_PIN_0|GPIO_PIN_10, GPIO_PIN_RESET);
 800091a:	2200      	movs	r2, #0
 800091c:	f240 4101 	movw	r1, #1025	; 0x401
 8000920:	4813      	ldr	r0, [pc, #76]	; (8000970 <MX_GPIO_Init+0xa4>)
 8000922:	f000 fc1f 	bl	8001164 <HAL_GPIO_WritePin>

  /*Configure GPIO pin : PA3 */
  GPIO_InitStruct.Pin = GPIO_PIN_3;
 8000926:	2308      	movs	r3, #8
 8000928:	60bb      	str	r3, [r7, #8]
  GPIO_InitStruct.Mode = GPIO_MODE_OUTPUT_PP;
 800092a:	2301      	movs	r3, #1
 800092c:	60fb      	str	r3, [r7, #12]
  GPIO_InitStruct.Pull = GPIO_NOPULL;
 800092e:	2300      	movs	r3, #0
 8000930:	613b      	str	r3, [r7, #16]
  GPIO_InitStruct.Speed = GPIO_SPEED_FREQ_LOW;
 8000932:	2302      	movs	r3, #2
 8000934:	617b      	str	r3, [r7, #20]
  HAL_GPIO_Init(GPIOA, &GPIO_InitStruct);
 8000936:	f107 0308 	add.w	r3, r7, #8
 800093a:	4619      	mov	r1, r3
 800093c:	480b      	ldr	r0, [pc, #44]	; (800096c <MX_GPIO_Init+0xa0>)
 800093e:	f000 fa95 	bl	8000e6c <HAL_GPIO_Init>

  /*Configure GPIO pins : PB0 PB10 */
  GPIO_InitStruct.Pin = GPIO_PIN_0|GPIO_PIN_10;
 8000942:	f240 4301 	movw	r3, #1025	; 0x401
 8000946:	60bb      	str	r3, [r7, #8]
  GPIO_InitStruct.Mode = GPIO_MODE_OUTPUT_PP;
 8000948:	2301      	movs	r3, #1
 800094a:	60fb      	str	r3, [r7, #12]
  GPIO_InitStruct.Pull = GPIO_NOPULL;
 800094c:	2300      	movs	r3, #0
 800094e:	613b      	str	r3, [r7, #16]
  GPIO_InitStruct.Speed = GPIO_SPEED_FREQ_LOW;
 8000950:	2302      	movs	r3, #2
 8000952:	617b      	str	r3, [r7, #20]
  HAL_GPIO_Init(GPIOB, &GPIO_InitStruct);
 8000954:	f107 0308 	add.w	r3, r7, #8
 8000958:	4619      	mov	r1, r3
 800095a:	4805      	ldr	r0, [pc, #20]	; (8000970 <MX_GPIO_Init+0xa4>)
 800095c:	f000 fa86 	bl	8000e6c <HAL_GPIO_Init>

}
 8000960:	bf00      	nop
 8000962:	3718      	adds	r7, #24
 8000964:	46bd      	mov	sp, r7
 8000966:	bd80      	pop	{r7, pc}
 8000968:	40021000 	.word	0x40021000
 800096c:	40010800 	.word	0x40010800
 8000970:	40010c00 	.word	0x40010c00

08000974 <Error_Handler>:
/**
  * @brief  This function is executed in case of error occurrence.
  * @retval None
  */
void Error_Handler(void)
{
 8000974:	b480      	push	{r7}
 8000976:	af00      	add	r7, sp, #0
  \details Disables IRQ interrupts by setting the I-bit in the CPSR.
           Can only be executed in Privileged modes.
 */
__STATIC_FORCEINLINE void __disable_irq(void)
{
  __ASM volatile ("cpsid i" : : : "memory");
 8000978:	b672      	cpsid	i
}
 800097a:	bf00      	nop
  /* USER CODE BEGIN Error_Handler_Debug */
  /* User can add his own implementation to report the HAL error return state */
  __disable_irq();
  while (1)
 800097c:	e7fe      	b.n	800097c <Error_Handler+0x8>
	...

08000980 <HAL_MspInit>:
/* USER CODE END 0 */
/**
  * Initializes the Global MSP.
  */
void HAL_MspInit(void)
{
 8000980:	b480      	push	{r7}
 8000982:	b083      	sub	sp, #12
 8000984:	af00      	add	r7, sp, #0
  /* USER CODE BEGIN MspInit 0 */

  /* USER CODE END MspInit 0 */

  __HAL_RCC_AFIO_CLK_ENABLE();
 8000986:	4b0e      	ldr	r3, [pc, #56]	; (80009c0 <HAL_MspInit+0x40>)
 8000988:	699b      	ldr	r3, [r3, #24]
 800098a:	4a0d      	ldr	r2, [pc, #52]	; (80009c0 <HAL_MspInit+0x40>)
 800098c:	f043 0301 	orr.w	r3, r3, #1
 8000990:	6193      	str	r3, [r2, #24]
 8000992:	4b0b      	ldr	r3, [pc, #44]	; (80009c0 <HAL_MspInit+0x40>)
 8000994:	699b      	ldr	r3, [r3, #24]
 8000996:	f003 0301 	and.w	r3, r3, #1
 800099a:	607b      	str	r3, [r7, #4]
 800099c:	687b      	ldr	r3, [r7, #4]
  __HAL_RCC_PWR_CLK_ENABLE();
 800099e:	4b08      	ldr	r3, [pc, #32]	; (80009c0 <HAL_MspInit+0x40>)
 80009a0:	69db      	ldr	r3, [r3, #28]
 80009a2:	4a07      	ldr	r2, [pc, #28]	; (80009c0 <HAL_MspInit+0x40>)
 80009a4:	f043 5380 	orr.w	r3, r3, #268435456	; 0x10000000
 80009a8:	61d3      	str	r3, [r2, #28]
 80009aa:	4b05      	ldr	r3, [pc, #20]	; (80009c0 <HAL_MspInit+0x40>)
 80009ac:	69db      	ldr	r3, [r3, #28]
 80009ae:	f003 5380 	and.w	r3, r3, #268435456	; 0x10000000
 80009b2:	603b      	str	r3, [r7, #0]
 80009b4:	683b      	ldr	r3, [r7, #0]
  /* System interrupt init*/

  /* USER CODE BEGIN MspInit 1 */

  /* USER CODE END MspInit 1 */
}
 80009b6:	bf00      	nop
 80009b8:	370c      	adds	r7, #12
 80009ba:	46bd      	mov	sp, r7
 80009bc:	bc80      	pop	{r7}
 80009be:	4770      	bx	lr
 80009c0:	40021000 	.word	0x40021000

080009c4 <HAL_SPI_MspInit>:
* This function configures the hardware resources used in this example
* @param hspi: SPI handle pointer
* @retval None
*/
void HAL_SPI_MspInit(SPI_HandleTypeDef* hspi)
{
 80009c4:	b580      	push	{r7, lr}
 80009c6:	b088      	sub	sp, #32
 80009c8:	af00      	add	r7, sp, #0
 80009ca:	6078      	str	r0, [r7, #4]
  GPIO_InitTypeDef GPIO_InitStruct = {0};
 80009cc:	f107 0310 	add.w	r3, r7, #16
 80009d0:	2200      	movs	r2, #0
 80009d2:	601a      	str	r2, [r3, #0]
 80009d4:	605a      	str	r2, [r3, #4]
 80009d6:	609a      	str	r2, [r3, #8]
 80009d8:	60da      	str	r2, [r3, #12]
  if(hspi->Instance==SPI1)
 80009da:	687b      	ldr	r3, [r7, #4]
 80009dc:	681b      	ldr	r3, [r3, #0]
 80009de:	4a1b      	ldr	r2, [pc, #108]	; (8000a4c <HAL_SPI_MspInit+0x88>)
 80009e0:	4293      	cmp	r3, r2
 80009e2:	d12f      	bne.n	8000a44 <HAL_SPI_MspInit+0x80>
  {
  /* USER CODE BEGIN SPI1_MspInit 0 */

  /* USER CODE END SPI1_MspInit 0 */
    /* Peripheral clock enable */
    __HAL_RCC_SPI1_CLK_ENABLE();
 80009e4:	4b1a      	ldr	r3, [pc, #104]	; (8000a50 <HAL_SPI_MspInit+0x8c>)
 80009e6:	699b      	ldr	r3, [r3, #24]
 80009e8:	4a19      	ldr	r2, [pc, #100]	; (8000a50 <HAL_SPI_MspInit+0x8c>)
 80009ea:	f443 5380 	orr.w	r3, r3, #4096	; 0x1000
 80009ee:	6193      	str	r3, [r2, #24]
 80009f0:	4b17      	ldr	r3, [pc, #92]	; (8000a50 <HAL_SPI_MspInit+0x8c>)
 80009f2:	699b      	ldr	r3, [r3, #24]
 80009f4:	f403 5380 	and.w	r3, r3, #4096	; 0x1000
 80009f8:	60fb      	str	r3, [r7, #12]
 80009fa:	68fb      	ldr	r3, [r7, #12]

    __HAL_RCC_GPIOA_CLK_ENABLE();
 80009fc:	4b14      	ldr	r3, [pc, #80]	; (8000a50 <HAL_SPI_MspInit+0x8c>)
 80009fe:	699b      	ldr	r3, [r3, #24]
 8000a00:	4a13      	ldr	r2, [pc, #76]	; (8000a50 <HAL_SPI_MspInit+0x8c>)
 8000a02:	f043 0304 	orr.w	r3, r3, #4
 8000a06:	6193      	str	r3, [r2, #24]
 8000a08:	4b11      	ldr	r3, [pc, #68]	; (8000a50 <HAL_SPI_MspInit+0x8c>)
 8000a0a:	699b      	ldr	r3, [r3, #24]
 8000a0c:	f003 0304 	and.w	r3, r3, #4
 8000a10:	60bb      	str	r3, [r7, #8]
 8000a12:	68bb      	ldr	r3, [r7, #8]
    /**SPI1 GPIO Configuration
    PA5     ------> SPI1_SCK
    PA6     ------> SPI1_MISO
    PA7     ------> SPI1_MOSI
    */
    GPIO_InitStruct.Pin = GPIO_PIN_5|GPIO_PIN_7;
 8000a14:	23a0      	movs	r3, #160	; 0xa0
 8000a16:	613b      	str	r3, [r7, #16]
    GPIO_InitStruct.Mode = GPIO_MODE_AF_PP;
 8000a18:	2302      	movs	r3, #2
 8000a1a:	617b      	str	r3, [r7, #20]
    GPIO_InitStruct.Speed = GPIO_SPEED_FREQ_HIGH;
 8000a1c:	2303      	movs	r3, #3
 8000a1e:	61fb      	str	r3, [r7, #28]
    HAL_GPIO_Init(GPIOA, &GPIO_InitStruct);
 8000a20:	f107 0310 	add.w	r3, r7, #16
 8000a24:	4619      	mov	r1, r3
 8000a26:	480b      	ldr	r0, [pc, #44]	; (8000a54 <HAL_SPI_MspInit+0x90>)
 8000a28:	f000 fa20 	bl	8000e6c <HAL_GPIO_Init>

    GPIO_InitStruct.Pin = GPIO_PIN_6;
 8000a2c:	2340      	movs	r3, #64	; 0x40
 8000a2e:	613b      	str	r3, [r7, #16]
    GPIO_InitStruct.Mode = GPIO_MODE_INPUT;
 8000a30:	2300      	movs	r3, #0
 8000a32:	617b      	str	r3, [r7, #20]
    GPIO_InitStruct.Pull = GPIO_NOPULL;
 8000a34:	2300      	movs	r3, #0
 8000a36:	61bb      	str	r3, [r7, #24]
    HAL_GPIO_Init(GPIOA, &GPIO_InitStruct);
 8000a38:	f107 0310 	add.w	r3, r7, #16
 8000a3c:	4619      	mov	r1, r3
 8000a3e:	4805      	ldr	r0, [pc, #20]	; (8000a54 <HAL_SPI_MspInit+0x90>)
 8000a40:	f000 fa14 	bl	8000e6c <HAL_GPIO_Init>
  /* USER CODE BEGIN SPI1_MspInit 1 */

  /* USER CODE END SPI1_MspInit 1 */
  }

}
 8000a44:	bf00      	nop
 8000a46:	3720      	adds	r7, #32
 8000a48:	46bd      	mov	sp, r7
 8000a4a:	bd80      	pop	{r7, pc}
 8000a4c:	40013000 	.word	0x40013000
 8000a50:	40021000 	.word	0x40021000
 8000a54:	40010800 	.word	0x40010800

08000a58 <HAL_UART_MspInit>:
* This function configures the hardware resources used in this example
* @param huart: UART handle pointer
* @retval None
*/
void HAL_UART_MspInit(UART_HandleTypeDef* huart)
{
 8000a58:	b580      	push	{r7, lr}
 8000a5a:	b088      	sub	sp, #32
 8000a5c:	af00      	add	r7, sp, #0
 8000a5e:	6078      	str	r0, [r7, #4]
  GPIO_InitTypeDef GPIO_InitStruct = {0};
 8000a60:	f107 0310 	add.w	r3, r7, #16
 8000a64:	2200      	movs	r2, #0
 8000a66:	601a      	str	r2, [r3, #0]
 8000a68:	605a      	str	r2, [r3, #4]
 8000a6a:	609a      	str	r2, [r3, #8]
 8000a6c:	60da      	str	r2, [r3, #12]
  if(huart->Instance==USART1)
 8000a6e:	687b      	ldr	r3, [r7, #4]
 8000a70:	681b      	ldr	r3, [r3, #0]
 8000a72:	4a1c      	ldr	r2, [pc, #112]	; (8000ae4 <HAL_UART_MspInit+0x8c>)
 8000a74:	4293      	cmp	r3, r2
 8000a76:	d131      	bne.n	8000adc <HAL_UART_MspInit+0x84>
  {
  /* USER CODE BEGIN USART1_MspInit 0 */

  /* USER CODE END USART1_MspInit 0 */
    /* Peripheral clock enable */
    __HAL_RCC_USART1_CLK_ENABLE();
 8000a78:	4b1b      	ldr	r3, [pc, #108]	; (8000ae8 <HAL_UART_MspInit+0x90>)
 8000a7a:	699b      	ldr	r3, [r3, #24]
 8000a7c:	4a1a      	ldr	r2, [pc, #104]	; (8000ae8 <HAL_UART_MspInit+0x90>)
 8000a7e:	f443 4380 	orr.w	r3, r3, #16384	; 0x4000
 8000a82:	6193      	str	r3, [r2, #24]
 8000a84:	4b18      	ldr	r3, [pc, #96]	; (8000ae8 <HAL_UART_MspInit+0x90>)
 8000a86:	699b      	ldr	r3, [r3, #24]
 8000a88:	f403 4380 	and.w	r3, r3, #16384	; 0x4000
 8000a8c:	60fb      	str	r3, [r7, #12]
 8000a8e:	68fb      	ldr	r3, [r7, #12]

    __HAL_RCC_GPIOA_CLK_ENABLE();
 8000a90:	4b15      	ldr	r3, [pc, #84]	; (8000ae8 <HAL_UART_MspInit+0x90>)
 8000a92:	699b      	ldr	r3, [r3, #24]
 8000a94:	4a14      	ldr	r2, [pc, #80]	; (8000ae8 <HAL_UART_MspInit+0x90>)
 8000a96:	f043 0304 	orr.w	r3, r3, #4
 8000a9a:	6193      	str	r3, [r2, #24]
 8000a9c:	4b12      	ldr	r3, [pc, #72]	; (8000ae8 <HAL_UART_MspInit+0x90>)
 8000a9e:	699b      	ldr	r3, [r3, #24]
 8000aa0:	f003 0304 	and.w	r3, r3, #4
 8000aa4:	60bb      	str	r3, [r7, #8]
 8000aa6:	68bb      	ldr	r3, [r7, #8]
    /**USART1 GPIO Configuration
    PA9     ------> USART1_TX
    PA10     ------> USART1_RX
    */
    GPIO_InitStruct.Pin = GPIO_PIN_9;
 8000aa8:	f44f 7300 	mov.w	r3, #512	; 0x200
 8000aac:	613b      	str	r3, [r7, #16]
    GPIO_InitStruct.Mode = GPIO_MODE_AF_PP;
 8000aae:	2302      	movs	r3, #2
 8000ab0:	617b      	str	r3, [r7, #20]
    GPIO_InitStruct.Speed = GPIO_SPEED_FREQ_HIGH;
 8000ab2:	2303      	movs	r3, #3
 8000ab4:	61fb      	str	r3, [r7, #28]
    HAL_GPIO_Init(GPIOA, &GPIO_InitStruct);
 8000ab6:	f107 0310 	add.w	r3, r7, #16
 8000aba:	4619      	mov	r1, r3
 8000abc:	480b      	ldr	r0, [pc, #44]	; (8000aec <HAL_UART_MspInit+0x94>)
 8000abe:	f000 f9d5 	bl	8000e6c <HAL_GPIO_Init>

    GPIO_InitStruct.Pin = GPIO_PIN_10;
 8000ac2:	f44f 6380 	mov.w	r3, #1024	; 0x400
 8000ac6:	613b      	str	r3, [r7, #16]
    GPIO_InitStruct.Mode = GPIO_MODE_INPUT;
 8000ac8:	2300      	movs	r3, #0
 8000aca:	617b      	str	r3, [r7, #20]
    GPIO_InitStruct.Pull = GPIO_NOPULL;
 8000acc:	2300      	movs	r3, #0
 8000ace:	61bb      	str	r3, [r7, #24]
    HAL_GPIO_Init(GPIOA, &GPIO_InitStruct);
 8000ad0:	f107 0310 	add.w	r3, r7, #16
 8000ad4:	4619      	mov	r1, r3
 8000ad6:	4805      	ldr	r0, [pc, #20]	; (8000aec <HAL_UART_MspInit+0x94>)
 8000ad8:	f000 f9c8 	bl	8000e6c <HAL_GPIO_Init>
  /* USER CODE BEGIN USART1_MspInit 1 */

  /* USER CODE END USART1_MspInit 1 */
  }

}
 8000adc:	bf00      	nop
 8000ade:	3720      	adds	r7, #32
 8000ae0:	46bd      	mov	sp, r7
 8000ae2:	bd80      	pop	{r7, pc}
 8000ae4:	40013800 	.word	0x40013800
 8000ae8:	40021000 	.word	0x40021000
 8000aec:	40010800 	.word	0x40010800

08000af0 <NMI_Handler>:
/******************************************************************************/
/**
  * @brief This function handles Non maskable interrupt.
  */
void NMI_Handler(void)
{
 8000af0:	b480      	push	{r7}
 8000af2:	af00      	add	r7, sp, #0
  /* USER CODE BEGIN NonMaskableInt_IRQn 0 */

  /* USER CODE END NonMaskableInt_IRQn 0 */
  /* USER CODE BEGIN NonMaskableInt_IRQn 1 */
  while (1)
 8000af4:	e7fe      	b.n	8000af4 <NMI_Handler+0x4>

08000af6 <HardFault_Handler>:

/**
  * @brief This function handles Hard fault interrupt.
  */
void HardFault_Handler(void)
{
 8000af6:	b480      	push	{r7}
 8000af8:	af00      	add	r7, sp, #0
  /* USER CODE BEGIN HardFault_IRQn 0 */

  /* USER CODE END HardFault_IRQn 0 */
  while (1)
 8000afa:	e7fe      	b.n	8000afa <HardFault_Handler+0x4>

08000afc <MemManage_Handler>:

/**
  * @brief This function handles Memory management fault.
  */
void MemManage_Handler(void)
{
 8000afc:	b480      	push	{r7}
 8000afe:	af00      	add	r7, sp, #0
  /* USER CODE BEGIN MemoryManagement_IRQn 0 */

  /* USER CODE END MemoryManagement_IRQn 0 */
  while (1)
 8000b00:	e7fe      	b.n	8000b00 <MemManage_Handler+0x4>

08000b02 <BusFault_Handler>:

/**
  * @brief This function handles Prefetch fault, memory access fault.
  */
void BusFault_Handler(void)
{
 8000b02:	b480      	push	{r7}
 8000b04:	af00      	add	r7, sp, #0
  /* USER CODE BEGIN BusFault_IRQn 0 */

  /* USER CODE END BusFault_IRQn 0 */
  while (1)
 8000b06:	e7fe      	b.n	8000b06 <BusFault_Handler+0x4>

08000b08 <UsageFault_Handler>:

/**
  * @brief This function handles Undefined instruction or illegal state.
  */
void UsageFault_Handler(void)
{
 8000b08:	b480      	push	{r7}
 8000b0a:	af00      	add	r7, sp, #0
  /* USER CODE BEGIN UsageFault_IRQn 0 */

  /* USER CODE END UsageFault_IRQn 0 */
  while (1)
 8000b0c:	e7fe      	b.n	8000b0c <UsageFault_Handler+0x4>

08000b0e <SVC_Handler>:

/**
  * @brief This function handles System service call via SWI instruction.
  */
void SVC_Handler(void)
{
 8000b0e:	b480      	push	{r7}
 8000b10:	af00      	add	r7, sp, #0

  /* USER CODE END SVCall_IRQn 0 */
  /* USER CODE BEGIN SVCall_IRQn 1 */

  /* USER CODE END SVCall_IRQn 1 */
}
 8000b12:	bf00      	nop
 8000b14:	46bd      	mov	sp, r7
 8000b16:	bc80      	pop	{r7}
 8000b18:	4770      	bx	lr

08000b1a <DebugMon_Handler>:

/**
  * @brief This function handles Debug monitor.
  */
void DebugMon_Handler(void)
{
 8000b1a:	b480      	push	{r7}
 8000b1c:	af00      	add	r7, sp, #0

  /* USER CODE END DebugMonitor_IRQn 0 */
  /* USER CODE BEGIN DebugMonitor_IRQn 1 */

  /* USER CODE END DebugMonitor_IRQn 1 */
}
 8000b1e:	bf00      	nop
 8000b20:	46bd      	mov	sp, r7
 8000b22:	bc80      	pop	{r7}
 8000b24:	4770      	bx	lr

08000b26 <PendSV_Handler>:

/**
  * @brief This function handles Pendable request for system service.
  */
void PendSV_Handler(void)
{
 8000b26:	b480      	push	{r7}
 8000b28:	af00      	add	r7, sp, #0

  /* USER CODE END PendSV_IRQn 0 */
  /* USER CODE BEGIN PendSV_IRQn 1 */

  /* USER CODE END PendSV_IRQn 1 */
}
 8000b2a:	bf00      	nop
 8000b2c:	46bd      	mov	sp, r7
 8000b2e:	bc80      	pop	{r7}
 8000b30:	4770      	bx	lr

08000b32 <SysTick_Handler>:

/**
  * @brief This function handles System tick timer.
  */
void SysTick_Handler(void)
{
 8000b32:	b580      	push	{r7, lr}
 8000b34:	af00      	add	r7, sp, #0
  /* USER CODE BEGIN SysTick_IRQn 0 */

  /* USER CODE END SysTick_IRQn 0 */
  HAL_IncTick();
 8000b36:	f000 f875 	bl	8000c24 <HAL_IncTick>
  /* USER CODE BEGIN SysTick_IRQn 1 */

  /* USER CODE END SysTick_IRQn 1 */
}
 8000b3a:	bf00      	nop
 8000b3c:	bd80      	pop	{r7, pc}

08000b3e <SystemInit>:
  * @note   This function should be used only after reset.
  * @param  None
  * @retval None
  */
void SystemInit (void)
{
 8000b3e:	b480      	push	{r7}
 8000b40:	af00      	add	r7, sp, #0

  /* Configure the Vector Table location -------------------------------------*/
#if defined(USER_VECT_TAB_ADDRESS)
  SCB->VTOR = VECT_TAB_BASE_ADDRESS | VECT_TAB_OFFSET; /* Vector Table Relocation in Internal SRAM. */
#endif /* USER_VECT_TAB_ADDRESS */
}
 8000b42:	bf00      	nop
 8000b44:	46bd      	mov	sp, r7
 8000b46:	bc80      	pop	{r7}
 8000b48:	4770      	bx	lr
	...

08000b4c <Reset_Handler>:
  .weak Reset_Handler
  .type Reset_Handler, %function
Reset_Handler:

/* Call the clock system initialization function.*/
    bl  SystemInit
 8000b4c:	f7ff fff7 	bl	8000b3e <SystemInit>

/* Copy the data segment initializers from flash to SRAM */
  ldr r0, =_sdata
 8000b50:	480b      	ldr	r0, [pc, #44]	; (8000b80 <LoopFillZerobss+0xe>)
  ldr r1, =_edata
 8000b52:	490c      	ldr	r1, [pc, #48]	; (8000b84 <LoopFillZerobss+0x12>)
  ldr r2, =_sidata
 8000b54:	4a0c      	ldr	r2, [pc, #48]	; (8000b88 <LoopFillZerobss+0x16>)
  movs r3, #0
 8000b56:	2300      	movs	r3, #0
  b LoopCopyDataInit
 8000b58:	e002      	b.n	8000b60 <LoopCopyDataInit>

08000b5a <CopyDataInit>:

CopyDataInit:
  ldr r4, [r2, r3]
 8000b5a:	58d4      	ldr	r4, [r2, r3]
  str r4, [r0, r3]
 8000b5c:	50c4      	str	r4, [r0, r3]
  adds r3, r3, #4
 8000b5e:	3304      	adds	r3, #4

08000b60 <LoopCopyDataInit>:

LoopCopyDataInit:
  adds r4, r0, r3
 8000b60:	18c4      	adds	r4, r0, r3
  cmp r4, r1
 8000b62:	428c      	cmp	r4, r1
  bcc CopyDataInit
 8000b64:	d3f9      	bcc.n	8000b5a <CopyDataInit>
  
/* Zero fill the bss segment. */
  ldr r2, =_sbss
 8000b66:	4a09      	ldr	r2, [pc, #36]	; (8000b8c <LoopFillZerobss+0x1a>)
  ldr r4, =_ebss
 8000b68:	4c09      	ldr	r4, [pc, #36]	; (8000b90 <LoopFillZerobss+0x1e>)
  movs r3, #0
 8000b6a:	2300      	movs	r3, #0
  b LoopFillZerobss
 8000b6c:	e001      	b.n	8000b72 <LoopFillZerobss>

08000b6e <FillZerobss>:

FillZerobss:
  str  r3, [r2]
 8000b6e:	6013      	str	r3, [r2, #0]
  adds r2, r2, #4
 8000b70:	3204      	adds	r2, #4

08000b72 <LoopFillZerobss>:

LoopFillZerobss:
  cmp r2, r4
 8000b72:	42a2      	cmp	r2, r4
  bcc FillZerobss
 8000b74:	d3fb      	bcc.n	8000b6e <FillZerobss>

/* Call static constructors */
    bl __libc_init_array
 8000b76:	f001 fd8f 	bl	8002698 <__libc_init_array>
/* Call the application's entry point.*/
  bl main
 8000b7a:	f7ff fd9f 	bl	80006bc <main>
  bx lr
 8000b7e:	4770      	bx	lr
  ldr r0, =_sdata
 8000b80:	20000000 	.word	0x20000000
  ldr r1, =_edata
 8000b84:	2000000c 	.word	0x2000000c
  ldr r2, =_sidata
 8000b88:	08002744 	.word	0x08002744
  ldr r2, =_sbss
 8000b8c:	2000000c 	.word	0x2000000c
  ldr r4, =_ebss
 8000b90:	200000f8 	.word	0x200000f8

08000b94 <ADC1_2_IRQHandler>:
 * @retval : None
*/
    .section .text.Default_Handler,"ax",%progbits
Default_Handler:
Infinite_Loop:
  b Infinite_Loop
 8000b94:	e7fe      	b.n	8000b94 <ADC1_2_IRQHandler>
	...

08000b98 <HAL_Init>:
  *         need to ensure that the SysTick time base is always set to 1 millisecond
  *         to have correct HAL operation.
  * @retval HAL status
  */
HAL_StatusTypeDef HAL_Init(void)
{
 8000b98:	b580      	push	{r7, lr}
 8000b9a:	af00      	add	r7, sp, #0
    defined(STM32F102x6) || defined(STM32F102xB) || \
    defined(STM32F103x6) || defined(STM32F103xB) || defined(STM32F103xE) || defined(STM32F103xG) || \
    defined(STM32F105xC) || defined(STM32F107xC)

  /* Prefetch buffer is not available on value line devices */
  __HAL_FLASH_PREFETCH_BUFFER_ENABLE();
 8000b9c:	4b08      	ldr	r3, [pc, #32]	; (8000bc0 <HAL_Init+0x28>)
 8000b9e:	681b      	ldr	r3, [r3, #0]
 8000ba0:	4a07      	ldr	r2, [pc, #28]	; (8000bc0 <HAL_Init+0x28>)
 8000ba2:	f043 0310 	orr.w	r3, r3, #16
 8000ba6:	6013      	str	r3, [r2, #0]
#endif
#endif /* PREFETCH_ENABLE */

  /* Set Interrupt Group Priority */
  HAL_NVIC_SetPriorityGrouping(NVIC_PRIORITYGROUP_4);
 8000ba8:	2003      	movs	r0, #3
 8000baa:	f000 f92b 	bl	8000e04 <HAL_NVIC_SetPriorityGrouping>

  /* Use systick as time base source and configure 1ms tick (default clock after Reset is HSI) */
  HAL_InitTick(TICK_INT_PRIORITY);
 8000bae:	200f      	movs	r0, #15
 8000bb0:	f000 f808 	bl	8000bc4 <HAL_InitTick>

  /* Init the low level hardware */
  HAL_MspInit();
 8000bb4:	f7ff fee4 	bl	8000980 <HAL_MspInit>

  /* Return function status */
  return HAL_OK;
 8000bb8:	2300      	movs	r3, #0
}
 8000bba:	4618      	mov	r0, r3
 8000bbc:	bd80      	pop	{r7, pc}
 8000bbe:	bf00      	nop
 8000bc0:	40022000 	.word	0x40022000

08000bc4 <HAL_InitTick>:
  *       implementation  in user file.
  * @param TickPriority Tick interrupt priority.
  * @retval HAL status
  */
__weak HAL_StatusTypeDef HAL_InitTick(uint32_t TickPriority)
{
 8000bc4:	b580      	push	{r7, lr}
 8000bc6:	b082      	sub	sp, #8
 8000bc8:	af00      	add	r7, sp, #0
 8000bca:	6078      	str	r0, [r7, #4]
  /* Configure the SysTick to have interrupt in 1ms time basis*/
  if (HAL_SYSTICK_Config(SystemCoreClock / (1000U / uwTickFreq)) > 0U)
 8000bcc:	4b12      	ldr	r3, [pc, #72]	; (8000c18 <HAL_InitTick+0x54>)
 8000bce:	681a      	ldr	r2, [r3, #0]
 8000bd0:	4b12      	ldr	r3, [pc, #72]	; (8000c1c <HAL_InitTick+0x58>)
 8000bd2:	781b      	ldrb	r3, [r3, #0]
 8000bd4:	4619      	mov	r1, r3
 8000bd6:	f44f 737a 	mov.w	r3, #1000	; 0x3e8
 8000bda:	fbb3 f3f1 	udiv	r3, r3, r1
 8000bde:	fbb2 f3f3 	udiv	r3, r2, r3
 8000be2:	4618      	mov	r0, r3
 8000be4:	f000 f935 	bl	8000e52 <HAL_SYSTICK_Config>
 8000be8:	4603      	mov	r3, r0
 8000bea:	2b00      	cmp	r3, #0
 8000bec:	d001      	beq.n	8000bf2 <HAL_InitTick+0x2e>
  {
    return HAL_ERROR;
 8000bee:	2301      	movs	r3, #1
 8000bf0:	e00e      	b.n	8000c10 <HAL_InitTick+0x4c>
  }

  /* Configure the SysTick IRQ priority */
  if (TickPriority < (1UL << __NVIC_PRIO_BITS))
 8000bf2:	687b      	ldr	r3, [r7, #4]
 8000bf4:	2b0f      	cmp	r3, #15
 8000bf6:	d80a      	bhi.n	8000c0e <HAL_InitTick+0x4a>
  {
    HAL_NVIC_SetPriority(SysTick_IRQn, TickPriority, 0U);
 8000bf8:	2200      	movs	r2, #0
 8000bfa:	6879      	ldr	r1, [r7, #4]
 8000bfc:	f04f 30ff 	mov.w	r0, #4294967295
 8000c00:	f000 f90b 	bl	8000e1a <HAL_NVIC_SetPriority>
    uwTickPrio = TickPriority;
 8000c04:	4a06      	ldr	r2, [pc, #24]	; (8000c20 <HAL_InitTick+0x5c>)
 8000c06:	687b      	ldr	r3, [r7, #4]
 8000c08:	6013      	str	r3, [r2, #0]
  {
    return HAL_ERROR;
  }

  /* Return function status */
  return HAL_OK;
 8000c0a:	2300      	movs	r3, #0
 8000c0c:	e000      	b.n	8000c10 <HAL_InitTick+0x4c>
    return HAL_ERROR;
 8000c0e:	2301      	movs	r3, #1
}
 8000c10:	4618      	mov	r0, r3
 8000c12:	3708      	adds	r7, #8
 8000c14:	46bd      	mov	sp, r7
 8000c16:	bd80      	pop	{r7, pc}
 8000c18:	20000000 	.word	0x20000000
 8000c1c:	20000008 	.word	0x20000008
 8000c20:	20000004 	.word	0x20000004

08000c24 <HAL_IncTick>:
  * @note This function is declared as __weak to be overwritten in case of other
  *      implementations in user file.
  * @retval None
  */
__weak void HAL_IncTick(void)
{
 8000c24:	b480      	push	{r7}
 8000c26:	af00      	add	r7, sp, #0
  uwTick += uwTickFreq;
 8000c28:	4b05      	ldr	r3, [pc, #20]	; (8000c40 <HAL_IncTick+0x1c>)
 8000c2a:	781b      	ldrb	r3, [r3, #0]
 8000c2c:	461a      	mov	r2, r3
 8000c2e:	4b05      	ldr	r3, [pc, #20]	; (8000c44 <HAL_IncTick+0x20>)
 8000c30:	681b      	ldr	r3, [r3, #0]
 8000c32:	4413      	add	r3, r2
 8000c34:	4a03      	ldr	r2, [pc, #12]	; (8000c44 <HAL_IncTick+0x20>)
 8000c36:	6013      	str	r3, [r2, #0]
}
 8000c38:	bf00      	nop
 8000c3a:	46bd      	mov	sp, r7
 8000c3c:	bc80      	pop	{r7}
 8000c3e:	4770      	bx	lr
 8000c40:	20000008 	.word	0x20000008
 8000c44:	200000f4 	.word	0x200000f4

08000c48 <HAL_GetTick>:
  * @note  This function is declared as __weak to be overwritten in case of other
  *       implementations in user file.
  * @retval tick value
  */
__weak uint32_t HAL_GetTick(void)
{
 8000c48:	b480      	push	{r7}
 8000c4a:	af00      	add	r7, sp, #0
  return uwTick;
 8000c4c:	4b02      	ldr	r3, [pc, #8]	; (8000c58 <HAL_GetTick+0x10>)
 8000c4e:	681b      	ldr	r3, [r3, #0]
}
 8000c50:	4618      	mov	r0, r3
 8000c52:	46bd      	mov	sp, r7
 8000c54:	bc80      	pop	{r7}
 8000c56:	4770      	bx	lr
 8000c58:	200000f4 	.word	0x200000f4

08000c5c <HAL_Delay>:
  *       implementations in user file.
  * @param Delay specifies the delay time length, in milliseconds.
  * @retval None
  */
__weak void HAL_Delay(uint32_t Delay)
{
 8000c5c:	b580      	push	{r7, lr}
 8000c5e:	b084      	sub	sp, #16
 8000c60:	af00      	add	r7, sp, #0
 8000c62:	6078      	str	r0, [r7, #4]
  uint32_t tickstart = HAL_GetTick();
 8000c64:	f7ff fff0 	bl	8000c48 <HAL_GetTick>
 8000c68:	60b8      	str	r0, [r7, #8]
  uint32_t wait = Delay;
 8000c6a:	687b      	ldr	r3, [r7, #4]
 8000c6c:	60fb      	str	r3, [r7, #12]

  /* Add a freq to guarantee minimum wait */
  if (wait < HAL_MAX_DELAY)
 8000c6e:	68fb      	ldr	r3, [r7, #12]
 8000c70:	f1b3 3fff 	cmp.w	r3, #4294967295
 8000c74:	d005      	beq.n	8000c82 <HAL_Delay+0x26>
  {
    wait += (uint32_t)(uwTickFreq);
 8000c76:	4b0a      	ldr	r3, [pc, #40]	; (8000ca0 <HAL_Delay+0x44>)
 8000c78:	781b      	ldrb	r3, [r3, #0]
 8000c7a:	461a      	mov	r2, r3
 8000c7c:	68fb      	ldr	r3, [r7, #12]
 8000c7e:	4413      	add	r3, r2
 8000c80:	60fb      	str	r3, [r7, #12]
  }

  while ((HAL_GetTick() - tickstart) < wait)
 8000c82:	bf00      	nop
 8000c84:	f7ff ffe0 	bl	8000c48 <HAL_GetTick>
 8000c88:	4602      	mov	r2, r0
 8000c8a:	68bb      	ldr	r3, [r7, #8]
 8000c8c:	1ad3      	subs	r3, r2, r3
 8000c8e:	68fa      	ldr	r2, [r7, #12]
 8000c90:	429a      	cmp	r2, r3
 8000c92:	d8f7      	bhi.n	8000c84 <HAL_Delay+0x28>
  {
  }
}
 8000c94:	bf00      	nop
 8000c96:	bf00      	nop
 8000c98:	3710      	adds	r7, #16
 8000c9a:	46bd      	mov	sp, r7
 8000c9c:	bd80      	pop	{r7, pc}
 8000c9e:	bf00      	nop
 8000ca0:	20000008 	.word	0x20000008

08000ca4 <__NVIC_SetPriorityGrouping>:
           In case of a conflict between priority grouping and available
           priority bits (__NVIC_PRIO_BITS), the smallest possible priority group is set.
  \param [in]      PriorityGroup  Priority grouping field.
 */
__STATIC_INLINE void __NVIC_SetPriorityGrouping(uint32_t PriorityGroup)
{
 8000ca4:	b480      	push	{r7}
 8000ca6:	b085      	sub	sp, #20
 8000ca8:	af00      	add	r7, sp, #0
 8000caa:	6078      	str	r0, [r7, #4]
  uint32_t reg_value;
  uint32_t PriorityGroupTmp = (PriorityGroup & (uint32_t)0x07UL);             /* only values 0..7 are used          */
 8000cac:	687b      	ldr	r3, [r7, #4]
 8000cae:	f003 0307 	and.w	r3, r3, #7
 8000cb2:	60fb      	str	r3, [r7, #12]

  reg_value  =  SCB->AIRCR;                                                   /* read old register configuration    */
 8000cb4:	4b0c      	ldr	r3, [pc, #48]	; (8000ce8 <__NVIC_SetPriorityGrouping+0x44>)
 8000cb6:	68db      	ldr	r3, [r3, #12]
 8000cb8:	60bb      	str	r3, [r7, #8]
  reg_value &= ~((uint32_t)(SCB_AIRCR_VECTKEY_Msk | SCB_AIRCR_PRIGROUP_Msk)); /* clear bits to change               */
 8000cba:	68ba      	ldr	r2, [r7, #8]
 8000cbc:	f64f 03ff 	movw	r3, #63743	; 0xf8ff
 8000cc0:	4013      	ands	r3, r2
 8000cc2:	60bb      	str	r3, [r7, #8]
  reg_value  =  (reg_value                                   |
                ((uint32_t)0x5FAUL << SCB_AIRCR_VECTKEY_Pos) |
                (PriorityGroupTmp << SCB_AIRCR_PRIGROUP_Pos) );               /* Insert write key and priority group */
 8000cc4:	68fb      	ldr	r3, [r7, #12]
 8000cc6:	021a      	lsls	r2, r3, #8
                ((uint32_t)0x5FAUL << SCB_AIRCR_VECTKEY_Pos) |
 8000cc8:	68bb      	ldr	r3, [r7, #8]
 8000cca:	4313      	orrs	r3, r2
  reg_value  =  (reg_value                                   |
 8000ccc:	f043 63bf 	orr.w	r3, r3, #100139008	; 0x5f80000
 8000cd0:	f443 3300 	orr.w	r3, r3, #131072	; 0x20000
 8000cd4:	60bb      	str	r3, [r7, #8]
  SCB->AIRCR =  reg_value;
 8000cd6:	4a04      	ldr	r2, [pc, #16]	; (8000ce8 <__NVIC_SetPriorityGrouping+0x44>)
 8000cd8:	68bb      	ldr	r3, [r7, #8]
 8000cda:	60d3      	str	r3, [r2, #12]
}
 8000cdc:	bf00      	nop
 8000cde:	3714      	adds	r7, #20
 8000ce0:	46bd      	mov	sp, r7
 8000ce2:	bc80      	pop	{r7}
 8000ce4:	4770      	bx	lr
 8000ce6:	bf00      	nop
 8000ce8:	e000ed00 	.word	0xe000ed00

08000cec <__NVIC_GetPriorityGrouping>:
  \brief   Get Priority Grouping
  \details Reads the priority grouping field from the NVIC Interrupt Controller.
  \return                Priority grouping field (SCB->AIRCR [10:8] PRIGROUP field).
 */
__STATIC_INLINE uint32_t __NVIC_GetPriorityGrouping(void)
{
 8000cec:	b480      	push	{r7}
 8000cee:	af00      	add	r7, sp, #0
  return ((uint32_t)((SCB->AIRCR & SCB_AIRCR_PRIGROUP_Msk) >> SCB_AIRCR_PRIGROUP_Pos));
 8000cf0:	4b04      	ldr	r3, [pc, #16]	; (8000d04 <__NVIC_GetPriorityGrouping+0x18>)
 8000cf2:	68db      	ldr	r3, [r3, #12]
 8000cf4:	0a1b      	lsrs	r3, r3, #8
 8000cf6:	f003 0307 	and.w	r3, r3, #7
}
 8000cfa:	4618      	mov	r0, r3
 8000cfc:	46bd      	mov	sp, r7
 8000cfe:	bc80      	pop	{r7}
 8000d00:	4770      	bx	lr
 8000d02:	bf00      	nop
 8000d04:	e000ed00 	.word	0xe000ed00

08000d08 <__NVIC_SetPriority>:
  \param [in]      IRQn  Interrupt number.
  \param [in]  priority  Priority to set.
  \note    The priority cannot be set for every processor exception.
 */
__STATIC_INLINE void __NVIC_SetPriority(IRQn_Type IRQn, uint32_t priority)
{
 8000d08:	b480      	push	{r7}
 8000d0a:	b083      	sub	sp, #12
 8000d0c:	af00      	add	r7, sp, #0
 8000d0e:	4603      	mov	r3, r0
 8000d10:	6039      	str	r1, [r7, #0]
 8000d12:	71fb      	strb	r3, [r7, #7]
  if ((int32_t)(IRQn) >= 0)
 8000d14:	f997 3007 	ldrsb.w	r3, [r7, #7]
 8000d18:	2b00      	cmp	r3, #0
 8000d1a:	db0a      	blt.n	8000d32 <__NVIC_SetPriority+0x2a>
  {
    NVIC->IP[((uint32_t)IRQn)]               = (uint8_t)((priority << (8U - __NVIC_PRIO_BITS)) & (uint32_t)0xFFUL);
 8000d1c:	683b      	ldr	r3, [r7, #0]
 8000d1e:	b2da      	uxtb	r2, r3
 8000d20:	490c      	ldr	r1, [pc, #48]	; (8000d54 <__NVIC_SetPriority+0x4c>)
 8000d22:	f997 3007 	ldrsb.w	r3, [r7, #7]
 8000d26:	0112      	lsls	r2, r2, #4
 8000d28:	b2d2      	uxtb	r2, r2
 8000d2a:	440b      	add	r3, r1
 8000d2c:	f883 2300 	strb.w	r2, [r3, #768]	; 0x300
  }
  else
  {
    SCB->SHP[(((uint32_t)IRQn) & 0xFUL)-4UL] = (uint8_t)((priority << (8U - __NVIC_PRIO_BITS)) & (uint32_t)0xFFUL);
  }
}
 8000d30:	e00a      	b.n	8000d48 <__NVIC_SetPriority+0x40>
    SCB->SHP[(((uint32_t)IRQn) & 0xFUL)-4UL] = (uint8_t)((priority << (8U - __NVIC_PRIO_BITS)) & (uint32_t)0xFFUL);
 8000d32:	683b      	ldr	r3, [r7, #0]
 8000d34:	b2da      	uxtb	r2, r3
 8000d36:	4908      	ldr	r1, [pc, #32]	; (8000d58 <__NVIC_SetPriority+0x50>)
 8000d38:	79fb      	ldrb	r3, [r7, #7]
 8000d3a:	f003 030f 	and.w	r3, r3, #15
 8000d3e:	3b04      	subs	r3, #4
 8000d40:	0112      	lsls	r2, r2, #4
 8000d42:	b2d2      	uxtb	r2, r2
 8000d44:	440b      	add	r3, r1
 8000d46:	761a      	strb	r2, [r3, #24]
}
 8000d48:	bf00      	nop
 8000d4a:	370c      	adds	r7, #12
 8000d4c:	46bd      	mov	sp, r7
 8000d4e:	bc80      	pop	{r7}
 8000d50:	4770      	bx	lr
 8000d52:	bf00      	nop
 8000d54:	e000e100 	.word	0xe000e100
 8000d58:	e000ed00 	.word	0xe000ed00

08000d5c <NVIC_EncodePriority>:
  \param [in]   PreemptPriority  Preemptive priority value (starting from 0).
  \param [in]       SubPriority  Subpriority value (starting from 0).
  \return                        Encoded priority. Value can be used in the function \ref NVIC_SetPriority().
 */
__STATIC_INLINE uint32_t NVIC_EncodePriority (uint32_t PriorityGroup, uint32_t PreemptPriority, uint32_t SubPriority)
{
 8000d5c:	b480      	push	{r7}
 8000d5e:	b089      	sub	sp, #36	; 0x24
 8000d60:	af00      	add	r7, sp, #0
 8000d62:	60f8      	str	r0, [r7, #12]
 8000d64:	60b9      	str	r1, [r7, #8]
 8000d66:	607a      	str	r2, [r7, #4]
  uint32_t PriorityGroupTmp = (PriorityGroup & (uint32_t)0x07UL);   /* only values 0..7 are used          */
 8000d68:	68fb      	ldr	r3, [r7, #12]
 8000d6a:	f003 0307 	and.w	r3, r3, #7
 8000d6e:	61fb      	str	r3, [r7, #28]
  uint32_t PreemptPriorityBits;
  uint32_t SubPriorityBits;

  PreemptPriorityBits = ((7UL - PriorityGroupTmp) > (uint32_t)(__NVIC_PRIO_BITS)) ? (uint32_t)(__NVIC_PRIO_BITS) : (uint32_t)(7UL - PriorityGroupTmp);
 8000d70:	69fb      	ldr	r3, [r7, #28]
 8000d72:	f1c3 0307 	rsb	r3, r3, #7
 8000d76:	2b04      	cmp	r3, #4
 8000d78:	bf28      	it	cs
 8000d7a:	2304      	movcs	r3, #4
 8000d7c:	61bb      	str	r3, [r7, #24]
  SubPriorityBits     = ((PriorityGroupTmp + (uint32_t)(__NVIC_PRIO_BITS)) < (uint32_t)7UL) ? (uint32_t)0UL : (uint32_t)((PriorityGroupTmp - 7UL) + (uint32_t)(__NVIC_PRIO_BITS));
 8000d7e:	69fb      	ldr	r3, [r7, #28]
 8000d80:	3304      	adds	r3, #4
 8000d82:	2b06      	cmp	r3, #6
 8000d84:	d902      	bls.n	8000d8c <NVIC_EncodePriority+0x30>
 8000d86:	69fb      	ldr	r3, [r7, #28]
 8000d88:	3b03      	subs	r3, #3
 8000d8a:	e000      	b.n	8000d8e <NVIC_EncodePriority+0x32>
 8000d8c:	2300      	movs	r3, #0
 8000d8e:	617b      	str	r3, [r7, #20]

  return (
           ((PreemptPriority & (uint32_t)((1UL << (PreemptPriorityBits)) - 1UL)) << SubPriorityBits) |
 8000d90:	f04f 32ff 	mov.w	r2, #4294967295
 8000d94:	69bb      	ldr	r3, [r7, #24]
 8000d96:	fa02 f303 	lsl.w	r3, r2, r3
 8000d9a:	43da      	mvns	r2, r3
 8000d9c:	68bb      	ldr	r3, [r7, #8]
 8000d9e:	401a      	ands	r2, r3
 8000da0:	697b      	ldr	r3, [r7, #20]
 8000da2:	409a      	lsls	r2, r3
           ((SubPriority     & (uint32_t)((1UL << (SubPriorityBits    )) - 1UL)))
 8000da4:	f04f 31ff 	mov.w	r1, #4294967295
 8000da8:	697b      	ldr	r3, [r7, #20]
 8000daa:	fa01 f303 	lsl.w	r3, r1, r3
 8000dae:	43d9      	mvns	r1, r3
 8000db0:	687b      	ldr	r3, [r7, #4]
 8000db2:	400b      	ands	r3, r1
           ((PreemptPriority & (uint32_t)((1UL << (PreemptPriorityBits)) - 1UL)) << SubPriorityBits) |
 8000db4:	4313      	orrs	r3, r2
         );
}
 8000db6:	4618      	mov	r0, r3
 8000db8:	3724      	adds	r7, #36	; 0x24
 8000dba:	46bd      	mov	sp, r7
 8000dbc:	bc80      	pop	{r7}
 8000dbe:	4770      	bx	lr

08000dc0 <SysTick_Config>:
  \note    When the variable <b>__Vendor_SysTickConfig</b> is set to 1, then the
           function <b>SysTick_Config</b> is not included. In this case, the file <b><i>device</i>.h</b>
           must contain a vendor-specific implementation of this function.
 */
__STATIC_INLINE uint32_t SysTick_Config(uint32_t ticks)
{
 8000dc0:	b580      	push	{r7, lr}
 8000dc2:	b082      	sub	sp, #8
 8000dc4:	af00      	add	r7, sp, #0
 8000dc6:	6078      	str	r0, [r7, #4]
  if ((ticks - 1UL) > SysTick_LOAD_RELOAD_Msk)
 8000dc8:	687b      	ldr	r3, [r7, #4]
 8000dca:	3b01      	subs	r3, #1
 8000dcc:	f1b3 7f80 	cmp.w	r3, #16777216	; 0x1000000
 8000dd0:	d301      	bcc.n	8000dd6 <SysTick_Config+0x16>
  {
    return (1UL);                                                   /* Reload value impossible */
 8000dd2:	2301      	movs	r3, #1
 8000dd4:	e00f      	b.n	8000df6 <SysTick_Config+0x36>
  }

  SysTick->LOAD  = (uint32_t)(ticks - 1UL);                         /* set reload register */
 8000dd6:	4a0a      	ldr	r2, [pc, #40]	; (8000e00 <SysTick_Config+0x40>)
 8000dd8:	687b      	ldr	r3, [r7, #4]
 8000dda:	3b01      	subs	r3, #1
 8000ddc:	6053      	str	r3, [r2, #4]
  NVIC_SetPriority (SysTick_IRQn, (1UL << __NVIC_PRIO_BITS) - 1UL); /* set Priority for Systick Interrupt */
 8000dde:	210f      	movs	r1, #15
 8000de0:	f04f 30ff 	mov.w	r0, #4294967295
 8000de4:	f7ff ff90 	bl	8000d08 <__NVIC_SetPriority>
  SysTick->VAL   = 0UL;                                             /* Load the SysTick Counter Value */
 8000de8:	4b05      	ldr	r3, [pc, #20]	; (8000e00 <SysTick_Config+0x40>)
 8000dea:	2200      	movs	r2, #0
 8000dec:	609a      	str	r2, [r3, #8]
  SysTick->CTRL  = SysTick_CTRL_CLKSOURCE_Msk |
 8000dee:	4b04      	ldr	r3, [pc, #16]	; (8000e00 <SysTick_Config+0x40>)
 8000df0:	2207      	movs	r2, #7
 8000df2:	601a      	str	r2, [r3, #0]
                   SysTick_CTRL_TICKINT_Msk   |
                   SysTick_CTRL_ENABLE_Msk;                         /* Enable SysTick IRQ and SysTick Timer */
  return (0UL);                                                     /* Function successful */
 8000df4:	2300      	movs	r3, #0
}
 8000df6:	4618      	mov	r0, r3
 8000df8:	3708      	adds	r7, #8
 8000dfa:	46bd      	mov	sp, r7
 8000dfc:	bd80      	pop	{r7, pc}
 8000dfe:	bf00      	nop
 8000e00:	e000e010 	.word	0xe000e010

08000e04 <HAL_NVIC_SetPriorityGrouping>:
  * @note   When the NVIC_PriorityGroup_0 is selected, IRQ preemption is no more possible. 
  *         The pending IRQ priority will be managed only by the subpriority. 
  * @retval None
  */
void HAL_NVIC_SetPriorityGrouping(uint32_t PriorityGroup)
{
 8000e04:	b580      	push	{r7, lr}
 8000e06:	b082      	sub	sp, #8
 8000e08:	af00      	add	r7, sp, #0
 8000e0a:	6078      	str	r0, [r7, #4]
  /* Check the parameters */
  assert_param(IS_NVIC_PRIORITY_GROUP(PriorityGroup));
  
  /* Set the PRIGROUP[10:8] bits according to the PriorityGroup parameter value */
  NVIC_SetPriorityGrouping(PriorityGroup);
 8000e0c:	6878      	ldr	r0, [r7, #4]
 8000e0e:	f7ff ff49 	bl	8000ca4 <__NVIC_SetPriorityGrouping>
}
 8000e12:	bf00      	nop
 8000e14:	3708      	adds	r7, #8
 8000e16:	46bd      	mov	sp, r7
 8000e18:	bd80      	pop	{r7, pc}

08000e1a <HAL_NVIC_SetPriority>:
  *         This parameter can be a value between 0 and 15
  *         A lower priority value indicates a higher priority.          
  * @retval None
  */
void HAL_NVIC_SetPriority(IRQn_Type IRQn, uint32_t PreemptPriority, uint32_t SubPriority)
{ 
 8000e1a:	b580      	push	{r7, lr}
 8000e1c:	b086      	sub	sp, #24
 8000e1e:	af00      	add	r7, sp, #0
 8000e20:	4603      	mov	r3, r0
 8000e22:	60b9      	str	r1, [r7, #8]
 8000e24:	607a      	str	r2, [r7, #4]
 8000e26:	73fb      	strb	r3, [r7, #15]
  uint32_t prioritygroup = 0x00U;
 8000e28:	2300      	movs	r3, #0
 8000e2a:	617b      	str	r3, [r7, #20]
  
  /* Check the parameters */
  assert_param(IS_NVIC_SUB_PRIORITY(SubPriority));
  assert_param(IS_NVIC_PREEMPTION_PRIORITY(PreemptPriority));
  
  prioritygroup = NVIC_GetPriorityGrouping();
 8000e2c:	f7ff ff5e 	bl	8000cec <__NVIC_GetPriorityGrouping>
 8000e30:	6178      	str	r0, [r7, #20]
  
  NVIC_SetPriority(IRQn, NVIC_EncodePriority(prioritygroup, PreemptPriority, SubPriority));
 8000e32:	687a      	ldr	r2, [r7, #4]
 8000e34:	68b9      	ldr	r1, [r7, #8]
 8000e36:	6978      	ldr	r0, [r7, #20]
 8000e38:	f7ff ff90 	bl	8000d5c <NVIC_EncodePriority>
 8000e3c:	4602      	mov	r2, r0
 8000e3e:	f997 300f 	ldrsb.w	r3, [r7, #15]
 8000e42:	4611      	mov	r1, r2
 8000e44:	4618      	mov	r0, r3
 8000e46:	f7ff ff5f 	bl	8000d08 <__NVIC_SetPriority>
}
 8000e4a:	bf00      	nop
 8000e4c:	3718      	adds	r7, #24
 8000e4e:	46bd      	mov	sp, r7
 8000e50:	bd80      	pop	{r7, pc}

08000e52 <HAL_SYSTICK_Config>:
  * @param  TicksNumb: Specifies the ticks Number of ticks between two interrupts.
  * @retval status:  - 0  Function succeeded.
  *                  - 1  Function failed.
  */
uint32_t HAL_SYSTICK_Config(uint32_t TicksNumb)
{
 8000e52:	b580      	push	{r7, lr}
 8000e54:	b082      	sub	sp, #8
 8000e56:	af00      	add	r7, sp, #0
 8000e58:	6078      	str	r0, [r7, #4]
   return SysTick_Config(TicksNumb);
 8000e5a:	6878      	ldr	r0, [r7, #4]
 8000e5c:	f7ff ffb0 	bl	8000dc0 <SysTick_Config>
 8000e60:	4603      	mov	r3, r0
}
 8000e62:	4618      	mov	r0, r3
 8000e64:	3708      	adds	r7, #8
 8000e66:	46bd      	mov	sp, r7
 8000e68:	bd80      	pop	{r7, pc}
	...

08000e6c <HAL_GPIO_Init>:
  * @param  GPIO_Init: pointer to a GPIO_InitTypeDef structure that contains
  *         the configuration information for the specified GPIO peripheral.
  * @retval None
  */
void HAL_GPIO_Init(GPIO_TypeDef  *GPIOx, GPIO_InitTypeDef *GPIO_Init)
{
 8000e6c:	b480      	push	{r7}
 8000e6e:	b08b      	sub	sp, #44	; 0x2c
 8000e70:	af00      	add	r7, sp, #0
 8000e72:	6078      	str	r0, [r7, #4]
 8000e74:	6039      	str	r1, [r7, #0]
  uint32_t position = 0x00u;
 8000e76:	2300      	movs	r3, #0
 8000e78:	627b      	str	r3, [r7, #36]	; 0x24
  uint32_t ioposition;
  uint32_t iocurrent;
  uint32_t temp;
  uint32_t config = 0x00u;
 8000e7a:	2300      	movs	r3, #0
 8000e7c:	623b      	str	r3, [r7, #32]
  assert_param(IS_GPIO_ALL_INSTANCE(GPIOx));
  assert_param(IS_GPIO_PIN(GPIO_Init->Pin));
  assert_param(IS_GPIO_MODE(GPIO_Init->Mode));

  /* Configure the port pins */
  while (((GPIO_Init->Pin) >> position) != 0x00u)
 8000e7e:	e161      	b.n	8001144 <HAL_GPIO_Init+0x2d8>
  {
    /* Get the IO position */
    ioposition = (0x01uL << position);
 8000e80:	2201      	movs	r2, #1
 8000e82:	6a7b      	ldr	r3, [r7, #36]	; 0x24
 8000e84:	fa02 f303 	lsl.w	r3, r2, r3
 8000e88:	61fb      	str	r3, [r7, #28]

    /* Get the current IO position */
    iocurrent = (uint32_t)(GPIO_Init->Pin) & ioposition;
 8000e8a:	683b      	ldr	r3, [r7, #0]
 8000e8c:	681b      	ldr	r3, [r3, #0]
 8000e8e:	69fa      	ldr	r2, [r7, #28]
 8000e90:	4013      	ands	r3, r2
 8000e92:	61bb      	str	r3, [r7, #24]

    if (iocurrent == ioposition)
 8000e94:	69ba      	ldr	r2, [r7, #24]
 8000e96:	69fb      	ldr	r3, [r7, #28]
 8000e98:	429a      	cmp	r2, r3
 8000e9a:	f040 8150 	bne.w	800113e <HAL_GPIO_Init+0x2d2>
    {
      /* Check the Alternate function parameters */
      assert_param(IS_GPIO_AF_INSTANCE(GPIOx));

      /* Based on the required mode, filling config variable with MODEy[1:0] and CNFy[3:2] corresponding bits */
      switch (GPIO_Init->Mode)
 8000e9e:	683b      	ldr	r3, [r7, #0]
 8000ea0:	685b      	ldr	r3, [r3, #4]
 8000ea2:	4a97      	ldr	r2, [pc, #604]	; (8001100 <HAL_GPIO_Init+0x294>)
 8000ea4:	4293      	cmp	r3, r2
 8000ea6:	d05e      	beq.n	8000f66 <HAL_GPIO_Init+0xfa>
 8000ea8:	4a95      	ldr	r2, [pc, #596]	; (8001100 <HAL_GPIO_Init+0x294>)
 8000eaa:	4293      	cmp	r3, r2
 8000eac:	d875      	bhi.n	8000f9a <HAL_GPIO_Init+0x12e>
 8000eae:	4a95      	ldr	r2, [pc, #596]	; (8001104 <HAL_GPIO_Init+0x298>)
 8000eb0:	4293      	cmp	r3, r2
 8000eb2:	d058      	beq.n	8000f66 <HAL_GPIO_Init+0xfa>
 8000eb4:	4a93      	ldr	r2, [pc, #588]	; (8001104 <HAL_GPIO_Init+0x298>)
 8000eb6:	4293      	cmp	r3, r2
 8000eb8:	d86f      	bhi.n	8000f9a <HAL_GPIO_Init+0x12e>
 8000eba:	4a93      	ldr	r2, [pc, #588]	; (8001108 <HAL_GPIO_Init+0x29c>)
 8000ebc:	4293      	cmp	r3, r2
 8000ebe:	d052      	beq.n	8000f66 <HAL_GPIO_Init+0xfa>
 8000ec0:	4a91      	ldr	r2, [pc, #580]	; (8001108 <HAL_GPIO_Init+0x29c>)
 8000ec2:	4293      	cmp	r3, r2
 8000ec4:	d869      	bhi.n	8000f9a <HAL_GPIO_Init+0x12e>
 8000ec6:	4a91      	ldr	r2, [pc, #580]	; (800110c <HAL_GPIO_Init+0x2a0>)
 8000ec8:	4293      	cmp	r3, r2
 8000eca:	d04c      	beq.n	8000f66 <HAL_GPIO_Init+0xfa>
 8000ecc:	4a8f      	ldr	r2, [pc, #572]	; (800110c <HAL_GPIO_Init+0x2a0>)
 8000ece:	4293      	cmp	r3, r2
 8000ed0:	d863      	bhi.n	8000f9a <HAL_GPIO_Init+0x12e>
 8000ed2:	4a8f      	ldr	r2, [pc, #572]	; (8001110 <HAL_GPIO_Init+0x2a4>)
 8000ed4:	4293      	cmp	r3, r2
 8000ed6:	d046      	beq.n	8000f66 <HAL_GPIO_Init+0xfa>
 8000ed8:	4a8d      	ldr	r2, [pc, #564]	; (8001110 <HAL_GPIO_Init+0x2a4>)
 8000eda:	4293      	cmp	r3, r2
 8000edc:	d85d      	bhi.n	8000f9a <HAL_GPIO_Init+0x12e>
 8000ede:	2b12      	cmp	r3, #18
 8000ee0:	d82a      	bhi.n	8000f38 <HAL_GPIO_Init+0xcc>
 8000ee2:	2b12      	cmp	r3, #18
 8000ee4:	d859      	bhi.n	8000f9a <HAL_GPIO_Init+0x12e>
 8000ee6:	a201      	add	r2, pc, #4	; (adr r2, 8000eec <HAL_GPIO_Init+0x80>)
 8000ee8:	f852 f023 	ldr.w	pc, [r2, r3, lsl #2]
 8000eec:	08000f67 	.word	0x08000f67
 8000ef0:	08000f41 	.word	0x08000f41
 8000ef4:	08000f53 	.word	0x08000f53
 8000ef8:	08000f95 	.word	0x08000f95
 8000efc:	08000f9b 	.word	0x08000f9b
 8000f00:	08000f9b 	.word	0x08000f9b
 8000f04:	08000f9b 	.word	0x08000f9b
 8000f08:	08000f9b 	.word	0x08000f9b
 8000f0c:	08000f9b 	.word	0x08000f9b
 8000f10:	08000f9b 	.word	0x08000f9b
 8000f14:	08000f9b 	.word	0x08000f9b
 8000f18:	08000f9b 	.word	0x08000f9b
 8000f1c:	08000f9b 	.word	0x08000f9b
 8000f20:	08000f9b 	.word	0x08000f9b
 8000f24:	08000f9b 	.word	0x08000f9b
 8000f28:	08000f9b 	.word	0x08000f9b
 8000f2c:	08000f9b 	.word	0x08000f9b
 8000f30:	08000f49 	.word	0x08000f49
 8000f34:	08000f5d 	.word	0x08000f5d
 8000f38:	4a76      	ldr	r2, [pc, #472]	; (8001114 <HAL_GPIO_Init+0x2a8>)
 8000f3a:	4293      	cmp	r3, r2
 8000f3c:	d013      	beq.n	8000f66 <HAL_GPIO_Init+0xfa>
          config = GPIO_CR_MODE_INPUT + GPIO_CR_CNF_ANALOG;
          break;

        /* Parameters are checked with assert_param */
        default:
          break;
 8000f3e:	e02c      	b.n	8000f9a <HAL_GPIO_Init+0x12e>
          config = GPIO_Init->Speed + GPIO_CR_CNF_GP_OUTPUT_PP;
 8000f40:	683b      	ldr	r3, [r7, #0]
 8000f42:	68db      	ldr	r3, [r3, #12]
 8000f44:	623b      	str	r3, [r7, #32]
          break;
 8000f46:	e029      	b.n	8000f9c <HAL_GPIO_Init+0x130>
          config = GPIO_Init->Speed + GPIO_CR_CNF_GP_OUTPUT_OD;
 8000f48:	683b      	ldr	r3, [r7, #0]
 8000f4a:	68db      	ldr	r3, [r3, #12]
 8000f4c:	3304      	adds	r3, #4
 8000f4e:	623b      	str	r3, [r7, #32]
          break;
 8000f50:	e024      	b.n	8000f9c <HAL_GPIO_Init+0x130>
          config = GPIO_Init->Speed + GPIO_CR_CNF_AF_OUTPUT_PP;
 8000f52:	683b      	ldr	r3, [r7, #0]
 8000f54:	68db      	ldr	r3, [r3, #12]
 8000f56:	3308      	adds	r3, #8
 8000f58:	623b      	str	r3, [r7, #32]
          break;
 8000f5a:	e01f      	b.n	8000f9c <HAL_GPIO_Init+0x130>
          config = GPIO_Init->Speed + GPIO_CR_CNF_AF_OUTPUT_OD;
 8000f5c:	683b      	ldr	r3, [r7, #0]
 8000f5e:	68db      	ldr	r3, [r3, #12]
 8000f60:	330c      	adds	r3, #12
 8000f62:	623b      	str	r3, [r7, #32]
          break;
 8000f64:	e01a      	b.n	8000f9c <HAL_GPIO_Init+0x130>
          if (GPIO_Init->Pull == GPIO_NOPULL)
 8000f66:	683b      	ldr	r3, [r7, #0]
 8000f68:	689b      	ldr	r3, [r3, #8]
 8000f6a:	2b00      	cmp	r3, #0
 8000f6c:	d102      	bne.n	8000f74 <HAL_GPIO_Init+0x108>
            config = GPIO_CR_MODE_INPUT + GPIO_CR_CNF_INPUT_FLOATING;
 8000f6e:	2304      	movs	r3, #4
 8000f70:	623b      	str	r3, [r7, #32]
          break;
 8000f72:	e013      	b.n	8000f9c <HAL_GPIO_Init+0x130>
          else if (GPIO_Init->Pull == GPIO_PULLUP)
 8000f74:	683b      	ldr	r3, [r7, #0]
 8000f76:	689b      	ldr	r3, [r3, #8]
 8000f78:	2b01      	cmp	r3, #1
 8000f7a:	d105      	bne.n	8000f88 <HAL_GPIO_Init+0x11c>
            config = GPIO_CR_MODE_INPUT + GPIO_CR_CNF_INPUT_PU_PD;
 8000f7c:	2308      	movs	r3, #8
 8000f7e:	623b      	str	r3, [r7, #32]
            GPIOx->BSRR = ioposition;
 8000f80:	687b      	ldr	r3, [r7, #4]
 8000f82:	69fa      	ldr	r2, [r7, #28]
 8000f84:	611a      	str	r2, [r3, #16]
          break;
 8000f86:	e009      	b.n	8000f9c <HAL_GPIO_Init+0x130>
            config = GPIO_CR_MODE_INPUT + GPIO_CR_CNF_INPUT_PU_PD;
 8000f88:	2308      	movs	r3, #8
 8000f8a:	623b      	str	r3, [r7, #32]
            GPIOx->BRR = ioposition;
 8000f8c:	687b      	ldr	r3, [r7, #4]
 8000f8e:	69fa      	ldr	r2, [r7, #28]
 8000f90:	615a      	str	r2, [r3, #20]
          break;
 8000f92:	e003      	b.n	8000f9c <HAL_GPIO_Init+0x130>
          config = GPIO_CR_MODE_INPUT + GPIO_CR_CNF_ANALOG;
 8000f94:	2300      	movs	r3, #0
 8000f96:	623b      	str	r3, [r7, #32]
          break;
 8000f98:	e000      	b.n	8000f9c <HAL_GPIO_Init+0x130>
          break;
 8000f9a:	bf00      	nop
      }

      /* Check if the current bit belongs to first half or last half of the pin count number
       in order to address CRH or CRL register*/
      configregister = (iocurrent < GPIO_PIN_8) ? &GPIOx->CRL     : &GPIOx->CRH;
 8000f9c:	69bb      	ldr	r3, [r7, #24]
 8000f9e:	2bff      	cmp	r3, #255	; 0xff
 8000fa0:	d801      	bhi.n	8000fa6 <HAL_GPIO_Init+0x13a>
 8000fa2:	687b      	ldr	r3, [r7, #4]
 8000fa4:	e001      	b.n	8000faa <HAL_GPIO_Init+0x13e>
 8000fa6:	687b      	ldr	r3, [r7, #4]
 8000fa8:	3304      	adds	r3, #4
 8000faa:	617b      	str	r3, [r7, #20]
      registeroffset = (iocurrent < GPIO_PIN_8) ? (position << 2u) : ((position - 8u) << 2u);
 8000fac:	69bb      	ldr	r3, [r7, #24]
 8000fae:	2bff      	cmp	r3, #255	; 0xff
 8000fb0:	d802      	bhi.n	8000fb8 <HAL_GPIO_Init+0x14c>
 8000fb2:	6a7b      	ldr	r3, [r7, #36]	; 0x24
 8000fb4:	009b      	lsls	r3, r3, #2
 8000fb6:	e002      	b.n	8000fbe <HAL_GPIO_Init+0x152>
 8000fb8:	6a7b      	ldr	r3, [r7, #36]	; 0x24
 8000fba:	3b08      	subs	r3, #8
 8000fbc:	009b      	lsls	r3, r3, #2
 8000fbe:	613b      	str	r3, [r7, #16]

      /* Apply the new configuration of the pin to the register */
      MODIFY_REG((*configregister), ((GPIO_CRL_MODE0 | GPIO_CRL_CNF0) << registeroffset), (config << registeroffset));
 8000fc0:	697b      	ldr	r3, [r7, #20]
 8000fc2:	681a      	ldr	r2, [r3, #0]
 8000fc4:	210f      	movs	r1, #15
 8000fc6:	693b      	ldr	r3, [r7, #16]
 8000fc8:	fa01 f303 	lsl.w	r3, r1, r3
 8000fcc:	43db      	mvns	r3, r3
 8000fce:	401a      	ands	r2, r3
 8000fd0:	6a39      	ldr	r1, [r7, #32]
 8000fd2:	693b      	ldr	r3, [r7, #16]
 8000fd4:	fa01 f303 	lsl.w	r3, r1, r3
 8000fd8:	431a      	orrs	r2, r3
 8000fda:	697b      	ldr	r3, [r7, #20]
 8000fdc:	601a      	str	r2, [r3, #0]

      /*--------------------- EXTI Mode Configuration ------------------------*/
      /* Configure the External Interrupt or event for the current IO */
      if ((GPIO_Init->Mode & EXTI_MODE) == EXTI_MODE)
 8000fde:	683b      	ldr	r3, [r7, #0]
 8000fe0:	685b      	ldr	r3, [r3, #4]
 8000fe2:	f003 5380 	and.w	r3, r3, #268435456	; 0x10000000
 8000fe6:	2b00      	cmp	r3, #0
 8000fe8:	f000 80a9 	beq.w	800113e <HAL_GPIO_Init+0x2d2>
      {
        /* Enable AFIO Clock */
        __HAL_RCC_AFIO_CLK_ENABLE();
 8000fec:	4b4a      	ldr	r3, [pc, #296]	; (8001118 <HAL_GPIO_Init+0x2ac>)
 8000fee:	699b      	ldr	r3, [r3, #24]
 8000ff0:	4a49      	ldr	r2, [pc, #292]	; (8001118 <HAL_GPIO_Init+0x2ac>)
 8000ff2:	f043 0301 	orr.w	r3, r3, #1
 8000ff6:	6193      	str	r3, [r2, #24]
 8000ff8:	4b47      	ldr	r3, [pc, #284]	; (8001118 <HAL_GPIO_Init+0x2ac>)
 8000ffa:	699b      	ldr	r3, [r3, #24]
 8000ffc:	f003 0301 	and.w	r3, r3, #1
 8001000:	60bb      	str	r3, [r7, #8]
 8001002:	68bb      	ldr	r3, [r7, #8]
        temp = AFIO->EXTICR[position >> 2u];
 8001004:	4a45      	ldr	r2, [pc, #276]	; (800111c <HAL_GPIO_Init+0x2b0>)
 8001006:	6a7b      	ldr	r3, [r7, #36]	; 0x24
 8001008:	089b      	lsrs	r3, r3, #2
 800100a:	3302      	adds	r3, #2
 800100c:	f852 3023 	ldr.w	r3, [r2, r3, lsl #2]
 8001010:	60fb      	str	r3, [r7, #12]
        CLEAR_BIT(temp, (0x0Fu) << (4u * (position & 0x03u)));
 8001012:	6a7b      	ldr	r3, [r7, #36]	; 0x24
 8001014:	f003 0303 	and.w	r3, r3, #3
 8001018:	009b      	lsls	r3, r3, #2
 800101a:	220f      	movs	r2, #15
 800101c:	fa02 f303 	lsl.w	r3, r2, r3
 8001020:	43db      	mvns	r3, r3
 8001022:	68fa      	ldr	r2, [r7, #12]
 8001024:	4013      	ands	r3, r2
 8001026:	60fb      	str	r3, [r7, #12]
        SET_BIT(temp, (GPIO_GET_INDEX(GPIOx)) << (4u * (position & 0x03u)));
 8001028:	687b      	ldr	r3, [r7, #4]
 800102a:	4a3d      	ldr	r2, [pc, #244]	; (8001120 <HAL_GPIO_Init+0x2b4>)
 800102c:	4293      	cmp	r3, r2
 800102e:	d00d      	beq.n	800104c <HAL_GPIO_Init+0x1e0>
 8001030:	687b      	ldr	r3, [r7, #4]
 8001032:	4a3c      	ldr	r2, [pc, #240]	; (8001124 <HAL_GPIO_Init+0x2b8>)
 8001034:	4293      	cmp	r3, r2
 8001036:	d007      	beq.n	8001048 <HAL_GPIO_Init+0x1dc>
 8001038:	687b      	ldr	r3, [r7, #4]
 800103a:	4a3b      	ldr	r2, [pc, #236]	; (8001128 <HAL_GPIO_Init+0x2bc>)
 800103c:	4293      	cmp	r3, r2
 800103e:	d101      	bne.n	8001044 <HAL_GPIO_Init+0x1d8>
 8001040:	2302      	movs	r3, #2
 8001042:	e004      	b.n	800104e <HAL_GPIO_Init+0x1e2>
 8001044:	2303      	movs	r3, #3
 8001046:	e002      	b.n	800104e <HAL_GPIO_Init+0x1e2>
 8001048:	2301      	movs	r3, #1
 800104a:	e000      	b.n	800104e <HAL_GPIO_Init+0x1e2>
 800104c:	2300      	movs	r3, #0
 800104e:	6a7a      	ldr	r2, [r7, #36]	; 0x24
 8001050:	f002 0203 	and.w	r2, r2, #3
 8001054:	0092      	lsls	r2, r2, #2
 8001056:	4093      	lsls	r3, r2
 8001058:	68fa      	ldr	r2, [r7, #12]
 800105a:	4313      	orrs	r3, r2
 800105c:	60fb      	str	r3, [r7, #12]
        AFIO->EXTICR[position >> 2u] = temp;
 800105e:	492f      	ldr	r1, [pc, #188]	; (800111c <HAL_GPIO_Init+0x2b0>)
 8001060:	6a7b      	ldr	r3, [r7, #36]	; 0x24
 8001062:	089b      	lsrs	r3, r3, #2
 8001064:	3302      	adds	r3, #2
 8001066:	68fa      	ldr	r2, [r7, #12]
 8001068:	f841 2023 	str.w	r2, [r1, r3, lsl #2]


        /* Enable or disable the rising trigger */
        if ((GPIO_Init->Mode & RISING_EDGE) == RISING_EDGE)
 800106c:	683b      	ldr	r3, [r7, #0]
 800106e:	685b      	ldr	r3, [r3, #4]
 8001070:	f403 1380 	and.w	r3, r3, #1048576	; 0x100000
 8001074:	2b00      	cmp	r3, #0
 8001076:	d006      	beq.n	8001086 <HAL_GPIO_Init+0x21a>
        {
          SET_BIT(EXTI->RTSR, iocurrent);
 8001078:	4b2c      	ldr	r3, [pc, #176]	; (800112c <HAL_GPIO_Init+0x2c0>)
 800107a:	689a      	ldr	r2, [r3, #8]
 800107c:	492b      	ldr	r1, [pc, #172]	; (800112c <HAL_GPIO_Init+0x2c0>)
 800107e:	69bb      	ldr	r3, [r7, #24]
 8001080:	4313      	orrs	r3, r2
 8001082:	608b      	str	r3, [r1, #8]
 8001084:	e006      	b.n	8001094 <HAL_GPIO_Init+0x228>
        }
        else
        {
          CLEAR_BIT(EXTI->RTSR, iocurrent);
 8001086:	4b29      	ldr	r3, [pc, #164]	; (800112c <HAL_GPIO_Init+0x2c0>)
 8001088:	689a      	ldr	r2, [r3, #8]
 800108a:	69bb      	ldr	r3, [r7, #24]
 800108c:	43db      	mvns	r3, r3
 800108e:	4927      	ldr	r1, [pc, #156]	; (800112c <HAL_GPIO_Init+0x2c0>)
 8001090:	4013      	ands	r3, r2
 8001092:	608b      	str	r3, [r1, #8]
        }

        /* Enable or disable the falling trigger */
        if ((GPIO_Init->Mode & FALLING_EDGE) == FALLING_EDGE)
 8001094:	683b      	ldr	r3, [r7, #0]
 8001096:	685b      	ldr	r3, [r3, #4]
 8001098:	f403 1300 	and.w	r3, r3, #2097152	; 0x200000
 800109c:	2b00      	cmp	r3, #0
 800109e:	d006      	beq.n	80010ae <HAL_GPIO_Init+0x242>
        {
          SET_BIT(EXTI->FTSR, iocurrent);
 80010a0:	4b22      	ldr	r3, [pc, #136]	; (800112c <HAL_GPIO_Init+0x2c0>)
 80010a2:	68da      	ldr	r2, [r3, #12]
 80010a4:	4921      	ldr	r1, [pc, #132]	; (800112c <HAL_GPIO_Init+0x2c0>)
 80010a6:	69bb      	ldr	r3, [r7, #24]
 80010a8:	4313      	orrs	r3, r2
 80010aa:	60cb      	str	r3, [r1, #12]
 80010ac:	e006      	b.n	80010bc <HAL_GPIO_Init+0x250>
        }
        else
        {
          CLEAR_BIT(EXTI->FTSR, iocurrent);
 80010ae:	4b1f      	ldr	r3, [pc, #124]	; (800112c <HAL_GPIO_Init+0x2c0>)
 80010b0:	68da      	ldr	r2, [r3, #12]
 80010b2:	69bb      	ldr	r3, [r7, #24]
 80010b4:	43db      	mvns	r3, r3
 80010b6:	491d      	ldr	r1, [pc, #116]	; (800112c <HAL_GPIO_Init+0x2c0>)
 80010b8:	4013      	ands	r3, r2
 80010ba:	60cb      	str	r3, [r1, #12]
        }

        /* Configure the event mask */
        if ((GPIO_Init->Mode & GPIO_MODE_EVT) == GPIO_MODE_EVT)
 80010bc:	683b      	ldr	r3, [r7, #0]
 80010be:	685b      	ldr	r3, [r3, #4]
 80010c0:	f403 3300 	and.w	r3, r3, #131072	; 0x20000
 80010c4:	2b00      	cmp	r3, #0
 80010c6:	d006      	beq.n	80010d6 <HAL_GPIO_Init+0x26a>
        {
          SET_BIT(EXTI->EMR, iocurrent);
 80010c8:	4b18      	ldr	r3, [pc, #96]	; (800112c <HAL_GPIO_Init+0x2c0>)
 80010ca:	685a      	ldr	r2, [r3, #4]
 80010cc:	4917      	ldr	r1, [pc, #92]	; (800112c <HAL_GPIO_Init+0x2c0>)
 80010ce:	69bb      	ldr	r3, [r7, #24]
 80010d0:	4313      	orrs	r3, r2
 80010d2:	604b      	str	r3, [r1, #4]
 80010d4:	e006      	b.n	80010e4 <HAL_GPIO_Init+0x278>
        }
        else
        {
          CLEAR_BIT(EXTI->EMR, iocurrent);
 80010d6:	4b15      	ldr	r3, [pc, #84]	; (800112c <HAL_GPIO_Init+0x2c0>)
 80010d8:	685a      	ldr	r2, [r3, #4]
 80010da:	69bb      	ldr	r3, [r7, #24]
 80010dc:	43db      	mvns	r3, r3
 80010de:	4913      	ldr	r1, [pc, #76]	; (800112c <HAL_GPIO_Init+0x2c0>)
 80010e0:	4013      	ands	r3, r2
 80010e2:	604b      	str	r3, [r1, #4]
        }

        /* Configure the interrupt mask */
        if ((GPIO_Init->Mode & GPIO_MODE_IT) == GPIO_MODE_IT)
 80010e4:	683b      	ldr	r3, [r7, #0]
 80010e6:	685b      	ldr	r3, [r3, #4]
 80010e8:	f403 3380 	and.w	r3, r3, #65536	; 0x10000
 80010ec:	2b00      	cmp	r3, #0
 80010ee:	d01f      	beq.n	8001130 <HAL_GPIO_Init+0x2c4>
        {
          SET_BIT(EXTI->IMR, iocurrent);
 80010f0:	4b0e      	ldr	r3, [pc, #56]	; (800112c <HAL_GPIO_Init+0x2c0>)
 80010f2:	681a      	ldr	r2, [r3, #0]
 80010f4:	490d      	ldr	r1, [pc, #52]	; (800112c <HAL_GPIO_Init+0x2c0>)
 80010f6:	69bb      	ldr	r3, [r7, #24]
 80010f8:	4313      	orrs	r3, r2
 80010fa:	600b      	str	r3, [r1, #0]
 80010fc:	e01f      	b.n	800113e <HAL_GPIO_Init+0x2d2>
 80010fe:	bf00      	nop
 8001100:	10320000 	.word	0x10320000
 8001104:	10310000 	.word	0x10310000
 8001108:	10220000 	.word	0x10220000
 800110c:	10210000 	.word	0x10210000
 8001110:	10120000 	.word	0x10120000
 8001114:	10110000 	.word	0x10110000
 8001118:	40021000 	.word	0x40021000
 800111c:	40010000 	.word	0x40010000
 8001120:	40010800 	.word	0x40010800
 8001124:	40010c00 	.word	0x40010c00
 8001128:	40011000 	.word	0x40011000
 800112c:	40010400 	.word	0x40010400
        }
        else
        {
          CLEAR_BIT(EXTI->IMR, iocurrent);
 8001130:	4b0b      	ldr	r3, [pc, #44]	; (8001160 <HAL_GPIO_Init+0x2f4>)
 8001132:	681a      	ldr	r2, [r3, #0]
 8001134:	69bb      	ldr	r3, [r7, #24]
 8001136:	43db      	mvns	r3, r3
 8001138:	4909      	ldr	r1, [pc, #36]	; (8001160 <HAL_GPIO_Init+0x2f4>)
 800113a:	4013      	ands	r3, r2
 800113c:	600b      	str	r3, [r1, #0]
        }
      }
    }

	position++;
 800113e:	6a7b      	ldr	r3, [r7, #36]	; 0x24
 8001140:	3301      	adds	r3, #1
 8001142:	627b      	str	r3, [r7, #36]	; 0x24
  while (((GPIO_Init->Pin) >> position) != 0x00u)
 8001144:	683b      	ldr	r3, [r7, #0]
 8001146:	681a      	ldr	r2, [r3, #0]
 8001148:	6a7b      	ldr	r3, [r7, #36]	; 0x24
 800114a:	fa22 f303 	lsr.w	r3, r2, r3
 800114e:	2b00      	cmp	r3, #0
 8001150:	f47f ae96 	bne.w	8000e80 <HAL_GPIO_Init+0x14>
  }
}
 8001154:	bf00      	nop
 8001156:	bf00      	nop
 8001158:	372c      	adds	r7, #44	; 0x2c
 800115a:	46bd      	mov	sp, r7
 800115c:	bc80      	pop	{r7}
 800115e:	4770      	bx	lr
 8001160:	40010400 	.word	0x40010400

08001164 <HAL_GPIO_WritePin>:
  *            @arg GPIO_PIN_RESET: to clear the port pin
  *            @arg GPIO_PIN_SET: to set the port pin
  * @retval None
  */
void HAL_GPIO_WritePin(GPIO_TypeDef *GPIOx, uint16_t GPIO_Pin, GPIO_PinState PinState)
{
 8001164:	b480      	push	{r7}
 8001166:	b083      	sub	sp, #12
 8001168:	af00      	add	r7, sp, #0
 800116a:	6078      	str	r0, [r7, #4]
 800116c:	460b      	mov	r3, r1
 800116e:	807b      	strh	r3, [r7, #2]
 8001170:	4613      	mov	r3, r2
 8001172:	707b      	strb	r3, [r7, #1]
  /* Check the parameters */
  assert_param(IS_GPIO_PIN(GPIO_Pin));
  assert_param(IS_GPIO_PIN_ACTION(PinState));

  if (PinState != GPIO_PIN_RESET)
 8001174:	787b      	ldrb	r3, [r7, #1]
 8001176:	2b00      	cmp	r3, #0
 8001178:	d003      	beq.n	8001182 <HAL_GPIO_WritePin+0x1e>
  {
    GPIOx->BSRR = GPIO_Pin;
 800117a:	887a      	ldrh	r2, [r7, #2]
 800117c:	687b      	ldr	r3, [r7, #4]
 800117e:	611a      	str	r2, [r3, #16]
  }
  else
  {
    GPIOx->BSRR = (uint32_t)GPIO_Pin << 16u;
  }
}
 8001180:	e003      	b.n	800118a <HAL_GPIO_WritePin+0x26>
    GPIOx->BSRR = (uint32_t)GPIO_Pin << 16u;
 8001182:	887b      	ldrh	r3, [r7, #2]
 8001184:	041a      	lsls	r2, r3, #16
 8001186:	687b      	ldr	r3, [r7, #4]
 8001188:	611a      	str	r2, [r3, #16]
}
 800118a:	bf00      	nop
 800118c:	370c      	adds	r7, #12
 800118e:	46bd      	mov	sp, r7
 8001190:	bc80      	pop	{r7}
 8001192:	4770      	bx	lr

08001194 <HAL_RCC_OscConfig>:
  *         supported by this macro. User should request a transition to HSE Off
  *         first and then HSE On or HSE Bypass.
  * @retval HAL status
  */
HAL_StatusTypeDef HAL_RCC_OscConfig(RCC_OscInitTypeDef  *RCC_OscInitStruct)
{
 8001194:	b580      	push	{r7, lr}
 8001196:	b086      	sub	sp, #24
 8001198:	af00      	add	r7, sp, #0
 800119a:	6078      	str	r0, [r7, #4]
  uint32_t tickstart;
  uint32_t pll_config;

  /* Check Null pointer */
  if (RCC_OscInitStruct == NULL)
 800119c:	687b      	ldr	r3, [r7, #4]
 800119e:	2b00      	cmp	r3, #0
 80011a0:	d101      	bne.n	80011a6 <HAL_RCC_OscConfig+0x12>
  {
    return HAL_ERROR;
 80011a2:	2301      	movs	r3, #1
 80011a4:	e272      	b.n	800168c <HAL_RCC_OscConfig+0x4f8>

  /* Check the parameters */
  assert_param(IS_RCC_OSCILLATORTYPE(RCC_OscInitStruct->OscillatorType));

  /*------------------------------- HSE Configuration ------------------------*/
  if (((RCC_OscInitStruct->OscillatorType) & RCC_OSCILLATORTYPE_HSE) == RCC_OSCILLATORTYPE_HSE)
 80011a6:	687b      	ldr	r3, [r7, #4]
 80011a8:	681b      	ldr	r3, [r3, #0]
 80011aa:	f003 0301 	and.w	r3, r3, #1
 80011ae:	2b00      	cmp	r3, #0
 80011b0:	f000 8087 	beq.w	80012c2 <HAL_RCC_OscConfig+0x12e>
  {
    /* Check the parameters */
    assert_param(IS_RCC_HSE(RCC_OscInitStruct->HSEState));

    /* When the HSE is used as system clock or clock source for PLL in these cases it is not allowed to be disabled */
    if ((__HAL_RCC_GET_SYSCLK_SOURCE() == RCC_SYSCLKSOURCE_STATUS_HSE)
 80011b4:	4b92      	ldr	r3, [pc, #584]	; (8001400 <HAL_RCC_OscConfig+0x26c>)
 80011b6:	685b      	ldr	r3, [r3, #4]
 80011b8:	f003 030c 	and.w	r3, r3, #12
 80011bc:	2b04      	cmp	r3, #4
 80011be:	d00c      	beq.n	80011da <HAL_RCC_OscConfig+0x46>
        || ((__HAL_RCC_GET_SYSCLK_SOURCE() == RCC_SYSCLKSOURCE_STATUS_PLLCLK) && (__HAL_RCC_GET_PLL_OSCSOURCE() == RCC_PLLSOURCE_HSE)))
 80011c0:	4b8f      	ldr	r3, [pc, #572]	; (8001400 <HAL_RCC_OscConfig+0x26c>)
 80011c2:	685b      	ldr	r3, [r3, #4]
 80011c4:	f003 030c 	and.w	r3, r3, #12
 80011c8:	2b08      	cmp	r3, #8
 80011ca:	d112      	bne.n	80011f2 <HAL_RCC_OscConfig+0x5e>
 80011cc:	4b8c      	ldr	r3, [pc, #560]	; (8001400 <HAL_RCC_OscConfig+0x26c>)
 80011ce:	685b      	ldr	r3, [r3, #4]
 80011d0:	f403 3380 	and.w	r3, r3, #65536	; 0x10000
 80011d4:	f5b3 3f80 	cmp.w	r3, #65536	; 0x10000
 80011d8:	d10b      	bne.n	80011f2 <HAL_RCC_OscConfig+0x5e>
    {
      if ((__HAL_RCC_GET_FLAG(RCC_FLAG_HSERDY) != RESET) && (RCC_OscInitStruct->HSEState == RCC_HSE_OFF))
 80011da:	4b89      	ldr	r3, [pc, #548]	; (8001400 <HAL_RCC_OscConfig+0x26c>)
 80011dc:	681b      	ldr	r3, [r3, #0]
 80011de:	f403 3300 	and.w	r3, r3, #131072	; 0x20000
 80011e2:	2b00      	cmp	r3, #0
 80011e4:	d06c      	beq.n	80012c0 <HAL_RCC_OscConfig+0x12c>
 80011e6:	687b      	ldr	r3, [r7, #4]
 80011e8:	685b      	ldr	r3, [r3, #4]
 80011ea:	2b00      	cmp	r3, #0
 80011ec:	d168      	bne.n	80012c0 <HAL_RCC_OscConfig+0x12c>
      {
        return HAL_ERROR;
 80011ee:	2301      	movs	r3, #1
 80011f0:	e24c      	b.n	800168c <HAL_RCC_OscConfig+0x4f8>
      }
    }
    else
    {
      /* Set the new HSE configuration ---------------------------------------*/
      __HAL_RCC_HSE_CONFIG(RCC_OscInitStruct->HSEState);
 80011f2:	687b      	ldr	r3, [r7, #4]
 80011f4:	685b      	ldr	r3, [r3, #4]
 80011f6:	f5b3 3f80 	cmp.w	r3, #65536	; 0x10000
 80011fa:	d106      	bne.n	800120a <HAL_RCC_OscConfig+0x76>
 80011fc:	4b80      	ldr	r3, [pc, #512]	; (8001400 <HAL_RCC_OscConfig+0x26c>)
 80011fe:	681b      	ldr	r3, [r3, #0]
 8001200:	4a7f      	ldr	r2, [pc, #508]	; (8001400 <HAL_RCC_OscConfig+0x26c>)
 8001202:	f443 3380 	orr.w	r3, r3, #65536	; 0x10000
 8001206:	6013      	str	r3, [r2, #0]
 8001208:	e02e      	b.n	8001268 <HAL_RCC_OscConfig+0xd4>
 800120a:	687b      	ldr	r3, [r7, #4]
 800120c:	685b      	ldr	r3, [r3, #4]
 800120e:	2b00      	cmp	r3, #0
 8001210:	d10c      	bne.n	800122c <HAL_RCC_OscConfig+0x98>
 8001212:	4b7b      	ldr	r3, [pc, #492]	; (8001400 <HAL_RCC_OscConfig+0x26c>)
 8001214:	681b      	ldr	r3, [r3, #0]
 8001216:	4a7a      	ldr	r2, [pc, #488]	; (8001400 <HAL_RCC_OscConfig+0x26c>)
 8001218:	f423 3380 	bic.w	r3, r3, #65536	; 0x10000
 800121c:	6013      	str	r3, [r2, #0]
 800121e:	4b78      	ldr	r3, [pc, #480]	; (8001400 <HAL_RCC_OscConfig+0x26c>)
 8001220:	681b      	ldr	r3, [r3, #0]
 8001222:	4a77      	ldr	r2, [pc, #476]	; (8001400 <HAL_RCC_OscConfig+0x26c>)
 8001224:	f423 2380 	bic.w	r3, r3, #262144	; 0x40000
 8001228:	6013      	str	r3, [r2, #0]
 800122a:	e01d      	b.n	8001268 <HAL_RCC_OscConfig+0xd4>
 800122c:	687b      	ldr	r3, [r7, #4]
 800122e:	685b      	ldr	r3, [r3, #4]
 8001230:	f5b3 2fa0 	cmp.w	r3, #327680	; 0x50000
 8001234:	d10c      	bne.n	8001250 <HAL_RCC_OscConfig+0xbc>
 8001236:	4b72      	ldr	r3, [pc, #456]	; (8001400 <HAL_RCC_OscConfig+0x26c>)
 8001238:	681b      	ldr	r3, [r3, #0]
 800123a:	4a71      	ldr	r2, [pc, #452]	; (8001400 <HAL_RCC_OscConfig+0x26c>)
 800123c:	f443 2380 	orr.w	r3, r3, #262144	; 0x40000
 8001240:	6013      	str	r3, [r2, #0]
 8001242:	4b6f      	ldr	r3, [pc, #444]	; (8001400 <HAL_RCC_OscConfig+0x26c>)
 8001244:	681b      	ldr	r3, [r3, #0]
 8001246:	4a6e      	ldr	r2, [pc, #440]	; (8001400 <HAL_RCC_OscConfig+0x26c>)
 8001248:	f443 3380 	orr.w	r3, r3, #65536	; 0x10000
 800124c:	6013      	str	r3, [r2, #0]
 800124e:	e00b      	b.n	8001268 <HAL_RCC_OscConfig+0xd4>
 8001250:	4b6b      	ldr	r3, [pc, #428]	; (8001400 <HAL_RCC_OscConfig+0x26c>)
 8001252:	681b      	ldr	r3, [r3, #0]
 8001254:	4a6a      	ldr	r2, [pc, #424]	; (8001400 <HAL_RCC_OscConfig+0x26c>)
 8001256:	f423 3380 	bic.w	r3, r3, #65536	; 0x10000
 800125a:	6013      	str	r3, [r2, #0]
 800125c:	4b68      	ldr	r3, [pc, #416]	; (8001400 <HAL_RCC_OscConfig+0x26c>)
 800125e:	681b      	ldr	r3, [r3, #0]
 8001260:	4a67      	ldr	r2, [pc, #412]	; (8001400 <HAL_RCC_OscConfig+0x26c>)
 8001262:	f423 2380 	bic.w	r3, r3, #262144	; 0x40000
 8001266:	6013      	str	r3, [r2, #0]


      /* Check the HSE State */
      if (RCC_OscInitStruct->HSEState != RCC_HSE_OFF)
 8001268:	687b      	ldr	r3, [r7, #4]
 800126a:	685b      	ldr	r3, [r3, #4]
 800126c:	2b00      	cmp	r3, #0
 800126e:	d013      	beq.n	8001298 <HAL_RCC_OscConfig+0x104>
      {
        /* Get Start Tick */
        tickstart = HAL_GetTick();
 8001270:	f7ff fcea 	bl	8000c48 <HAL_GetTick>
 8001274:	6138      	str	r0, [r7, #16]

        /* Wait till HSE is ready */
        while (__HAL_RCC_GET_FLAG(RCC_FLAG_HSERDY) == RESET)
 8001276:	e008      	b.n	800128a <HAL_RCC_OscConfig+0xf6>
        {
          if ((HAL_GetTick() - tickstart) > HSE_TIMEOUT_VALUE)
 8001278:	f7ff fce6 	bl	8000c48 <HAL_GetTick>
 800127c:	4602      	mov	r2, r0
 800127e:	693b      	ldr	r3, [r7, #16]
 8001280:	1ad3      	subs	r3, r2, r3
 8001282:	2b64      	cmp	r3, #100	; 0x64
 8001284:	d901      	bls.n	800128a <HAL_RCC_OscConfig+0xf6>
          {
            return HAL_TIMEOUT;
 8001286:	2303      	movs	r3, #3
 8001288:	e200      	b.n	800168c <HAL_RCC_OscConfig+0x4f8>
        while (__HAL_RCC_GET_FLAG(RCC_FLAG_HSERDY) == RESET)
 800128a:	4b5d      	ldr	r3, [pc, #372]	; (8001400 <HAL_RCC_OscConfig+0x26c>)
 800128c:	681b      	ldr	r3, [r3, #0]
 800128e:	f403 3300 	and.w	r3, r3, #131072	; 0x20000
 8001292:	2b00      	cmp	r3, #0
 8001294:	d0f0      	beq.n	8001278 <HAL_RCC_OscConfig+0xe4>
 8001296:	e014      	b.n	80012c2 <HAL_RCC_OscConfig+0x12e>
        }
      }
      else
      {
        /* Get Start Tick */
        tickstart = HAL_GetTick();
 8001298:	f7ff fcd6 	bl	8000c48 <HAL_GetTick>
 800129c:	6138      	str	r0, [r7, #16]

        /* Wait till HSE is disabled */
        while (__HAL_RCC_GET_FLAG(RCC_FLAG_HSERDY) != RESET)
 800129e:	e008      	b.n	80012b2 <HAL_RCC_OscConfig+0x11e>
        {
          if ((HAL_GetTick() - tickstart) > HSE_TIMEOUT_VALUE)
 80012a0:	f7ff fcd2 	bl	8000c48 <HAL_GetTick>
 80012a4:	4602      	mov	r2, r0
 80012a6:	693b      	ldr	r3, [r7, #16]
 80012a8:	1ad3      	subs	r3, r2, r3
 80012aa:	2b64      	cmp	r3, #100	; 0x64
 80012ac:	d901      	bls.n	80012b2 <HAL_RCC_OscConfig+0x11e>
          {
            return HAL_TIMEOUT;
 80012ae:	2303      	movs	r3, #3
 80012b0:	e1ec      	b.n	800168c <HAL_RCC_OscConfig+0x4f8>
        while (__HAL_RCC_GET_FLAG(RCC_FLAG_HSERDY) != RESET)
 80012b2:	4b53      	ldr	r3, [pc, #332]	; (8001400 <HAL_RCC_OscConfig+0x26c>)
 80012b4:	681b      	ldr	r3, [r3, #0]
 80012b6:	f403 3300 	and.w	r3, r3, #131072	; 0x20000
 80012ba:	2b00      	cmp	r3, #0
 80012bc:	d1f0      	bne.n	80012a0 <HAL_RCC_OscConfig+0x10c>
 80012be:	e000      	b.n	80012c2 <HAL_RCC_OscConfig+0x12e>
      if ((__HAL_RCC_GET_FLAG(RCC_FLAG_HSERDY) != RESET) && (RCC_OscInitStruct->HSEState == RCC_HSE_OFF))
 80012c0:	bf00      	nop
        }
      }
    }
  }
  /*----------------------------- HSI Configuration --------------------------*/
  if (((RCC_OscInitStruct->OscillatorType) & RCC_OSCILLATORTYPE_HSI) == RCC_OSCILLATORTYPE_HSI)
 80012c2:	687b      	ldr	r3, [r7, #4]
 80012c4:	681b      	ldr	r3, [r3, #0]
 80012c6:	f003 0302 	and.w	r3, r3, #2
 80012ca:	2b00      	cmp	r3, #0
 80012cc:	d063      	beq.n	8001396 <HAL_RCC_OscConfig+0x202>
    /* Check the parameters */
    assert_param(IS_RCC_HSI(RCC_OscInitStruct->HSIState));
    assert_param(IS_RCC_CALIBRATION_VALUE(RCC_OscInitStruct->HSICalibrationValue));

    /* Check if HSI is used as system clock or as PLL source when PLL is selected as system clock */
    if ((__HAL_RCC_GET_SYSCLK_SOURCE() == RCC_SYSCLKSOURCE_STATUS_HSI)
 80012ce:	4b4c      	ldr	r3, [pc, #304]	; (8001400 <HAL_RCC_OscConfig+0x26c>)
 80012d0:	685b      	ldr	r3, [r3, #4]
 80012d2:	f003 030c 	and.w	r3, r3, #12
 80012d6:	2b00      	cmp	r3, #0
 80012d8:	d00b      	beq.n	80012f2 <HAL_RCC_OscConfig+0x15e>
        || ((__HAL_RCC_GET_SYSCLK_SOURCE() == RCC_SYSCLKSOURCE_STATUS_PLLCLK) && (__HAL_RCC_GET_PLL_OSCSOURCE() == RCC_PLLSOURCE_HSI_DIV2)))
 80012da:	4b49      	ldr	r3, [pc, #292]	; (8001400 <HAL_RCC_OscConfig+0x26c>)
 80012dc:	685b      	ldr	r3, [r3, #4]
 80012de:	f003 030c 	and.w	r3, r3, #12
 80012e2:	2b08      	cmp	r3, #8
 80012e4:	d11c      	bne.n	8001320 <HAL_RCC_OscConfig+0x18c>
 80012e6:	4b46      	ldr	r3, [pc, #280]	; (8001400 <HAL_RCC_OscConfig+0x26c>)
 80012e8:	685b      	ldr	r3, [r3, #4]
 80012ea:	f403 3380 	and.w	r3, r3, #65536	; 0x10000
 80012ee:	2b00      	cmp	r3, #0
 80012f0:	d116      	bne.n	8001320 <HAL_RCC_OscConfig+0x18c>
    {
      /* When HSI is used as system clock it will not disabled */
      if ((__HAL_RCC_GET_FLAG(RCC_FLAG_HSIRDY) != RESET) && (RCC_OscInitStruct->HSIState != RCC_HSI_ON))
 80012f2:	4b43      	ldr	r3, [pc, #268]	; (8001400 <HAL_RCC_OscConfig+0x26c>)
 80012f4:	681b      	ldr	r3, [r3, #0]
 80012f6:	f003 0302 	and.w	r3, r3, #2
 80012fa:	2b00      	cmp	r3, #0
 80012fc:	d005      	beq.n	800130a <HAL_RCC_OscConfig+0x176>
 80012fe:	687b      	ldr	r3, [r7, #4]
 8001300:	691b      	ldr	r3, [r3, #16]
 8001302:	2b01      	cmp	r3, #1
 8001304:	d001      	beq.n	800130a <HAL_RCC_OscConfig+0x176>
      {
        return HAL_ERROR;
 8001306:	2301      	movs	r3, #1
 8001308:	e1c0      	b.n	800168c <HAL_RCC_OscConfig+0x4f8>
      }
      /* Otherwise, just the calibration is allowed */
      else
      {
        /* Adjusts the Internal High Speed oscillator (HSI) calibration value.*/
        __HAL_RCC_HSI_CALIBRATIONVALUE_ADJUST(RCC_OscInitStruct->HSICalibrationValue);
 800130a:	4b3d      	ldr	r3, [pc, #244]	; (8001400 <HAL_RCC_OscConfig+0x26c>)
 800130c:	681b      	ldr	r3, [r3, #0]
 800130e:	f023 02f8 	bic.w	r2, r3, #248	; 0xf8
 8001312:	687b      	ldr	r3, [r7, #4]
 8001314:	695b      	ldr	r3, [r3, #20]
 8001316:	00db      	lsls	r3, r3, #3
 8001318:	4939      	ldr	r1, [pc, #228]	; (8001400 <HAL_RCC_OscConfig+0x26c>)
 800131a:	4313      	orrs	r3, r2
 800131c:	600b      	str	r3, [r1, #0]
      if ((__HAL_RCC_GET_FLAG(RCC_FLAG_HSIRDY) != RESET) && (RCC_OscInitStruct->HSIState != RCC_HSI_ON))
 800131e:	e03a      	b.n	8001396 <HAL_RCC_OscConfig+0x202>
      }
    }
    else
    {
      /* Check the HSI State */
      if (RCC_OscInitStruct->HSIState != RCC_HSI_OFF)
 8001320:	687b      	ldr	r3, [r7, #4]
 8001322:	691b      	ldr	r3, [r3, #16]
 8001324:	2b00      	cmp	r3, #0
 8001326:	d020      	beq.n	800136a <HAL_RCC_OscConfig+0x1d6>
      {
        /* Enable the Internal High Speed oscillator (HSI). */
        __HAL_RCC_HSI_ENABLE();
 8001328:	4b36      	ldr	r3, [pc, #216]	; (8001404 <HAL_RCC_OscConfig+0x270>)
 800132a:	2201      	movs	r2, #1
 800132c:	601a      	str	r2, [r3, #0]

        /* Get Start Tick */
        tickstart = HAL_GetTick();
 800132e:	f7ff fc8b 	bl	8000c48 <HAL_GetTick>
 8001332:	6138      	str	r0, [r7, #16]

        /* Wait till HSI is ready */
        while (__HAL_RCC_GET_FLAG(RCC_FLAG_HSIRDY) == RESET)
 8001334:	e008      	b.n	8001348 <HAL_RCC_OscConfig+0x1b4>
        {
          if ((HAL_GetTick() - tickstart) > HSI_TIMEOUT_VALUE)
 8001336:	f7ff fc87 	bl	8000c48 <HAL_GetTick>
 800133a:	4602      	mov	r2, r0
 800133c:	693b      	ldr	r3, [r7, #16]
 800133e:	1ad3      	subs	r3, r2, r3
 8001340:	2b02      	cmp	r3, #2
 8001342:	d901      	bls.n	8001348 <HAL_RCC_OscConfig+0x1b4>
          {
            return HAL_TIMEOUT;
 8001344:	2303      	movs	r3, #3
 8001346:	e1a1      	b.n	800168c <HAL_RCC_OscConfig+0x4f8>
        while (__HAL_RCC_GET_FLAG(RCC_FLAG_HSIRDY) == RESET)
 8001348:	4b2d      	ldr	r3, [pc, #180]	; (8001400 <HAL_RCC_OscConfig+0x26c>)
 800134a:	681b      	ldr	r3, [r3, #0]
 800134c:	f003 0302 	and.w	r3, r3, #2
 8001350:	2b00      	cmp	r3, #0
 8001352:	d0f0      	beq.n	8001336 <HAL_RCC_OscConfig+0x1a2>
          }
        }

        /* Adjusts the Internal High Speed oscillator (HSI) calibration value.*/
        __HAL_RCC_HSI_CALIBRATIONVALUE_ADJUST(RCC_OscInitStruct->HSICalibrationValue);
 8001354:	4b2a      	ldr	r3, [pc, #168]	; (8001400 <HAL_RCC_OscConfig+0x26c>)
 8001356:	681b      	ldr	r3, [r3, #0]
 8001358:	f023 02f8 	bic.w	r2, r3, #248	; 0xf8
 800135c:	687b      	ldr	r3, [r7, #4]
 800135e:	695b      	ldr	r3, [r3, #20]
 8001360:	00db      	lsls	r3, r3, #3
 8001362:	4927      	ldr	r1, [pc, #156]	; (8001400 <HAL_RCC_OscConfig+0x26c>)
 8001364:	4313      	orrs	r3, r2
 8001366:	600b      	str	r3, [r1, #0]
 8001368:	e015      	b.n	8001396 <HAL_RCC_OscConfig+0x202>
      }
      else
      {
        /* Disable the Internal High Speed oscillator (HSI). */
        __HAL_RCC_HSI_DISABLE();
 800136a:	4b26      	ldr	r3, [pc, #152]	; (8001404 <HAL_RCC_OscConfig+0x270>)
 800136c:	2200      	movs	r2, #0
 800136e:	601a      	str	r2, [r3, #0]

        /* Get Start Tick */
        tickstart = HAL_GetTick();
 8001370:	f7ff fc6a 	bl	8000c48 <HAL_GetTick>
 8001374:	6138      	str	r0, [r7, #16]

        /* Wait till HSI is disabled */
        while (__HAL_RCC_GET_FLAG(RCC_FLAG_HSIRDY) != RESET)
 8001376:	e008      	b.n	800138a <HAL_RCC_OscConfig+0x1f6>
        {
          if ((HAL_GetTick() - tickstart) > HSI_TIMEOUT_VALUE)
 8001378:	f7ff fc66 	bl	8000c48 <HAL_GetTick>
 800137c:	4602      	mov	r2, r0
 800137e:	693b      	ldr	r3, [r7, #16]
 8001380:	1ad3      	subs	r3, r2, r3
 8001382:	2b02      	cmp	r3, #2
 8001384:	d901      	bls.n	800138a <HAL_RCC_OscConfig+0x1f6>
          {
            return HAL_TIMEOUT;
 8001386:	2303      	movs	r3, #3
 8001388:	e180      	b.n	800168c <HAL_RCC_OscConfig+0x4f8>
        while (__HAL_RCC_GET_FLAG(RCC_FLAG_HSIRDY) != RESET)
 800138a:	4b1d      	ldr	r3, [pc, #116]	; (8001400 <HAL_RCC_OscConfig+0x26c>)
 800138c:	681b      	ldr	r3, [r3, #0]
 800138e:	f003 0302 	and.w	r3, r3, #2
 8001392:	2b00      	cmp	r3, #0
 8001394:	d1f0      	bne.n	8001378 <HAL_RCC_OscConfig+0x1e4>
        }
      }
    }
  }
  /*------------------------------ LSI Configuration -------------------------*/
  if (((RCC_OscInitStruct->OscillatorType) & RCC_OSCILLATORTYPE_LSI) == RCC_OSCILLATORTYPE_LSI)
 8001396:	687b      	ldr	r3, [r7, #4]
 8001398:	681b      	ldr	r3, [r3, #0]
 800139a:	f003 0308 	and.w	r3, r3, #8
 800139e:	2b00      	cmp	r3, #0
 80013a0:	d03a      	beq.n	8001418 <HAL_RCC_OscConfig+0x284>
  {
    /* Check the parameters */
    assert_param(IS_RCC_LSI(RCC_OscInitStruct->LSIState));

    /* Check the LSI State */
    if (RCC_OscInitStruct->LSIState != RCC_LSI_OFF)
 80013a2:	687b      	ldr	r3, [r7, #4]
 80013a4:	699b      	ldr	r3, [r3, #24]
 80013a6:	2b00      	cmp	r3, #0
 80013a8:	d019      	beq.n	80013de <HAL_RCC_OscConfig+0x24a>
    {
      /* Enable the Internal Low Speed oscillator (LSI). */
      __HAL_RCC_LSI_ENABLE();
 80013aa:	4b17      	ldr	r3, [pc, #92]	; (8001408 <HAL_RCC_OscConfig+0x274>)
 80013ac:	2201      	movs	r2, #1
 80013ae:	601a      	str	r2, [r3, #0]

      /* Get Start Tick */
      tickstart = HAL_GetTick();
 80013b0:	f7ff fc4a 	bl	8000c48 <HAL_GetTick>
 80013b4:	6138      	str	r0, [r7, #16]

      /* Wait till LSI is ready */
      while (__HAL_RCC_GET_FLAG(RCC_FLAG_LSIRDY) == RESET)
 80013b6:	e008      	b.n	80013ca <HAL_RCC_OscConfig+0x236>
      {
        if ((HAL_GetTick() - tickstart) > LSI_TIMEOUT_VALUE)
 80013b8:	f7ff fc46 	bl	8000c48 <HAL_GetTick>
 80013bc:	4602      	mov	r2, r0
 80013be:	693b      	ldr	r3, [r7, #16]
 80013c0:	1ad3      	subs	r3, r2, r3
 80013c2:	2b02      	cmp	r3, #2
 80013c4:	d901      	bls.n	80013ca <HAL_RCC_OscConfig+0x236>
        {
          return HAL_TIMEOUT;
 80013c6:	2303      	movs	r3, #3
 80013c8:	e160      	b.n	800168c <HAL_RCC_OscConfig+0x4f8>
      while (__HAL_RCC_GET_FLAG(RCC_FLAG_LSIRDY) == RESET)
 80013ca:	4b0d      	ldr	r3, [pc, #52]	; (8001400 <HAL_RCC_OscConfig+0x26c>)
 80013cc:	6a5b      	ldr	r3, [r3, #36]	; 0x24
 80013ce:	f003 0302 	and.w	r3, r3, #2
 80013d2:	2b00      	cmp	r3, #0
 80013d4:	d0f0      	beq.n	80013b8 <HAL_RCC_OscConfig+0x224>
        }
      }
      /*  To have a fully stabilized clock in the specified range, a software delay of 1ms
          should be added.*/
      RCC_Delay(1);
 80013d6:	2001      	movs	r0, #1
 80013d8:	f000 face 	bl	8001978 <RCC_Delay>
 80013dc:	e01c      	b.n	8001418 <HAL_RCC_OscConfig+0x284>
    }
    else
    {
      /* Disable the Internal Low Speed oscillator (LSI). */
      __HAL_RCC_LSI_DISABLE();
 80013de:	4b0a      	ldr	r3, [pc, #40]	; (8001408 <HAL_RCC_OscConfig+0x274>)
 80013e0:	2200      	movs	r2, #0
 80013e2:	601a      	str	r2, [r3, #0]

      /* Get Start Tick */
      tickstart = HAL_GetTick();
 80013e4:	f7ff fc30 	bl	8000c48 <HAL_GetTick>
 80013e8:	6138      	str	r0, [r7, #16]

      /* Wait till LSI is disabled */
      while (__HAL_RCC_GET_FLAG(RCC_FLAG_LSIRDY) != RESET)
 80013ea:	e00f      	b.n	800140c <HAL_RCC_OscConfig+0x278>
      {
        if ((HAL_GetTick() - tickstart) > LSI_TIMEOUT_VALUE)
 80013ec:	f7ff fc2c 	bl	8000c48 <HAL_GetTick>
 80013f0:	4602      	mov	r2, r0
 80013f2:	693b      	ldr	r3, [r7, #16]
 80013f4:	1ad3      	subs	r3, r2, r3
 80013f6:	2b02      	cmp	r3, #2
 80013f8:	d908      	bls.n	800140c <HAL_RCC_OscConfig+0x278>
        {
          return HAL_TIMEOUT;
 80013fa:	2303      	movs	r3, #3
 80013fc:	e146      	b.n	800168c <HAL_RCC_OscConfig+0x4f8>
 80013fe:	bf00      	nop
 8001400:	40021000 	.word	0x40021000
 8001404:	42420000 	.word	0x42420000
 8001408:	42420480 	.word	0x42420480
      while (__HAL_RCC_GET_FLAG(RCC_FLAG_LSIRDY) != RESET)
 800140c:	4b92      	ldr	r3, [pc, #584]	; (8001658 <HAL_RCC_OscConfig+0x4c4>)
 800140e:	6a5b      	ldr	r3, [r3, #36]	; 0x24
 8001410:	f003 0302 	and.w	r3, r3, #2
 8001414:	2b00      	cmp	r3, #0
 8001416:	d1e9      	bne.n	80013ec <HAL_RCC_OscConfig+0x258>
        }
      }
    }
  }
  /*------------------------------ LSE Configuration -------------------------*/
  if (((RCC_OscInitStruct->OscillatorType) & RCC_OSCILLATORTYPE_LSE) == RCC_OSCILLATORTYPE_LSE)
 8001418:	687b      	ldr	r3, [r7, #4]
 800141a:	681b      	ldr	r3, [r3, #0]
 800141c:	f003 0304 	and.w	r3, r3, #4
 8001420:	2b00      	cmp	r3, #0
 8001422:	f000 80a6 	beq.w	8001572 <HAL_RCC_OscConfig+0x3de>
  {
    FlagStatus       pwrclkchanged = RESET;
 8001426:	2300      	movs	r3, #0
 8001428:	75fb      	strb	r3, [r7, #23]
    /* Check the parameters */
    assert_param(IS_RCC_LSE(RCC_OscInitStruct->LSEState));

    /* Update LSE configuration in Backup Domain control register    */
    /* Requires to enable write access to Backup Domain of necessary */
    if (__HAL_RCC_PWR_IS_CLK_DISABLED())
 800142a:	4b8b      	ldr	r3, [pc, #556]	; (8001658 <HAL_RCC_OscConfig+0x4c4>)
 800142c:	69db      	ldr	r3, [r3, #28]
 800142e:	f003 5380 	and.w	r3, r3, #268435456	; 0x10000000
 8001432:	2b00      	cmp	r3, #0
 8001434:	d10d      	bne.n	8001452 <HAL_RCC_OscConfig+0x2be>
    {
      __HAL_RCC_PWR_CLK_ENABLE();
 8001436:	4b88      	ldr	r3, [pc, #544]	; (8001658 <HAL_RCC_OscConfig+0x4c4>)
 8001438:	69db      	ldr	r3, [r3, #28]
 800143a:	4a87      	ldr	r2, [pc, #540]	; (8001658 <HAL_RCC_OscConfig+0x4c4>)
 800143c:	f043 5380 	orr.w	r3, r3, #268435456	; 0x10000000
 8001440:	61d3      	str	r3, [r2, #28]
 8001442:	4b85      	ldr	r3, [pc, #532]	; (8001658 <HAL_RCC_OscConfig+0x4c4>)
 8001444:	69db      	ldr	r3, [r3, #28]
 8001446:	f003 5380 	and.w	r3, r3, #268435456	; 0x10000000
 800144a:	60bb      	str	r3, [r7, #8]
 800144c:	68bb      	ldr	r3, [r7, #8]
      pwrclkchanged = SET;
 800144e:	2301      	movs	r3, #1
 8001450:	75fb      	strb	r3, [r7, #23]
    }

    if (HAL_IS_BIT_CLR(PWR->CR, PWR_CR_DBP))
 8001452:	4b82      	ldr	r3, [pc, #520]	; (800165c <HAL_RCC_OscConfig+0x4c8>)
 8001454:	681b      	ldr	r3, [r3, #0]
 8001456:	f403 7380 	and.w	r3, r3, #256	; 0x100
 800145a:	2b00      	cmp	r3, #0
 800145c:	d118      	bne.n	8001490 <HAL_RCC_OscConfig+0x2fc>
    {
      /* Enable write access to Backup domain */
      SET_BIT(PWR->CR, PWR_CR_DBP);
 800145e:	4b7f      	ldr	r3, [pc, #508]	; (800165c <HAL_RCC_OscConfig+0x4c8>)
 8001460:	681b      	ldr	r3, [r3, #0]
 8001462:	4a7e      	ldr	r2, [pc, #504]	; (800165c <HAL_RCC_OscConfig+0x4c8>)
 8001464:	f443 7380 	orr.w	r3, r3, #256	; 0x100
 8001468:	6013      	str	r3, [r2, #0]

      /* Wait for Backup domain Write protection disable */
      tickstart = HAL_GetTick();
 800146a:	f7ff fbed 	bl	8000c48 <HAL_GetTick>
 800146e:	6138      	str	r0, [r7, #16]

      while (HAL_IS_BIT_CLR(PWR->CR, PWR_CR_DBP))
 8001470:	e008      	b.n	8001484 <HAL_RCC_OscConfig+0x2f0>
      {
        if ((HAL_GetTick() - tickstart) > RCC_DBP_TIMEOUT_VALUE)
 8001472:	f7ff fbe9 	bl	8000c48 <HAL_GetTick>
 8001476:	4602      	mov	r2, r0
 8001478:	693b      	ldr	r3, [r7, #16]
 800147a:	1ad3      	subs	r3, r2, r3
 800147c:	2b64      	cmp	r3, #100	; 0x64
 800147e:	d901      	bls.n	8001484 <HAL_RCC_OscConfig+0x2f0>
        {
          return HAL_TIMEOUT;
 8001480:	2303      	movs	r3, #3
 8001482:	e103      	b.n	800168c <HAL_RCC_OscConfig+0x4f8>
      while (HAL_IS_BIT_CLR(PWR->CR, PWR_CR_DBP))
 8001484:	4b75      	ldr	r3, [pc, #468]	; (800165c <HAL_RCC_OscConfig+0x4c8>)
 8001486:	681b      	ldr	r3, [r3, #0]
 8001488:	f403 7380 	and.w	r3, r3, #256	; 0x100
 800148c:	2b00      	cmp	r3, #0
 800148e:	d0f0      	beq.n	8001472 <HAL_RCC_OscConfig+0x2de>
        }
      }
    }

    /* Set the new LSE configuration -----------------------------------------*/
    __HAL_RCC_LSE_CONFIG(RCC_OscInitStruct->LSEState);
 8001490:	687b      	ldr	r3, [r7, #4]
 8001492:	68db      	ldr	r3, [r3, #12]
 8001494:	2b01      	cmp	r3, #1
 8001496:	d106      	bne.n	80014a6 <HAL_RCC_OscConfig+0x312>
 8001498:	4b6f      	ldr	r3, [pc, #444]	; (8001658 <HAL_RCC_OscConfig+0x4c4>)
 800149a:	6a1b      	ldr	r3, [r3, #32]
 800149c:	4a6e      	ldr	r2, [pc, #440]	; (8001658 <HAL_RCC_OscConfig+0x4c4>)
 800149e:	f043 0301 	orr.w	r3, r3, #1
 80014a2:	6213      	str	r3, [r2, #32]
 80014a4:	e02d      	b.n	8001502 <HAL_RCC_OscConfig+0x36e>
 80014a6:	687b      	ldr	r3, [r7, #4]
 80014a8:	68db      	ldr	r3, [r3, #12]
 80014aa:	2b00      	cmp	r3, #0
 80014ac:	d10c      	bne.n	80014c8 <HAL_RCC_OscConfig+0x334>
 80014ae:	4b6a      	ldr	r3, [pc, #424]	; (8001658 <HAL_RCC_OscConfig+0x4c4>)
 80014b0:	6a1b      	ldr	r3, [r3, #32]
 80014b2:	4a69      	ldr	r2, [pc, #420]	; (8001658 <HAL_RCC_OscConfig+0x4c4>)
 80014b4:	f023 0301 	bic.w	r3, r3, #1
 80014b8:	6213      	str	r3, [r2, #32]
 80014ba:	4b67      	ldr	r3, [pc, #412]	; (8001658 <HAL_RCC_OscConfig+0x4c4>)
 80014bc:	6a1b      	ldr	r3, [r3, #32]
 80014be:	4a66      	ldr	r2, [pc, #408]	; (8001658 <HAL_RCC_OscConfig+0x4c4>)
 80014c0:	f023 0304 	bic.w	r3, r3, #4
 80014c4:	6213      	str	r3, [r2, #32]
 80014c6:	e01c      	b.n	8001502 <HAL_RCC_OscConfig+0x36e>
 80014c8:	687b      	ldr	r3, [r7, #4]
 80014ca:	68db      	ldr	r3, [r3, #12]
 80014cc:	2b05      	cmp	r3, #5
 80014ce:	d10c      	bne.n	80014ea <HAL_RCC_OscConfig+0x356>
 80014d0:	4b61      	ldr	r3, [pc, #388]	; (8001658 <HAL_RCC_OscConfig+0x4c4>)
 80014d2:	6a1b      	ldr	r3, [r3, #32]
 80014d4:	4a60      	ldr	r2, [pc, #384]	; (8001658 <HAL_RCC_OscConfig+0x4c4>)
 80014d6:	f043 0304 	orr.w	r3, r3, #4
 80014da:	6213      	str	r3, [r2, #32]
 80014dc:	4b5e      	ldr	r3, [pc, #376]	; (8001658 <HAL_RCC_OscConfig+0x4c4>)
 80014de:	6a1b      	ldr	r3, [r3, #32]
 80014e0:	4a5d      	ldr	r2, [pc, #372]	; (8001658 <HAL_RCC_OscConfig+0x4c4>)
 80014e2:	f043 0301 	orr.w	r3, r3, #1
 80014e6:	6213      	str	r3, [r2, #32]
 80014e8:	e00b      	b.n	8001502 <HAL_RCC_OscConfig+0x36e>
 80014ea:	4b5b      	ldr	r3, [pc, #364]	; (8001658 <HAL_RCC_OscConfig+0x4c4>)
 80014ec:	6a1b      	ldr	r3, [r3, #32]
 80014ee:	4a5a      	ldr	r2, [pc, #360]	; (8001658 <HAL_RCC_OscConfig+0x4c4>)
 80014f0:	f023 0301 	bic.w	r3, r3, #1
 80014f4:	6213      	str	r3, [r2, #32]
 80014f6:	4b58      	ldr	r3, [pc, #352]	; (8001658 <HAL_RCC_OscConfig+0x4c4>)
 80014f8:	6a1b      	ldr	r3, [r3, #32]
 80014fa:	4a57      	ldr	r2, [pc, #348]	; (8001658 <HAL_RCC_OscConfig+0x4c4>)
 80014fc:	f023 0304 	bic.w	r3, r3, #4
 8001500:	6213      	str	r3, [r2, #32]
    /* Check the LSE State */
    if (RCC_OscInitStruct->LSEState != RCC_LSE_OFF)
 8001502:	687b      	ldr	r3, [r7, #4]
 8001504:	68db      	ldr	r3, [r3, #12]
 8001506:	2b00      	cmp	r3, #0
 8001508:	d015      	beq.n	8001536 <HAL_RCC_OscConfig+0x3a2>
    {
      /* Get Start Tick */
      tickstart = HAL_GetTick();
 800150a:	f7ff fb9d 	bl	8000c48 <HAL_GetTick>
 800150e:	6138      	str	r0, [r7, #16]

      /* Wait till LSE is ready */
      while (__HAL_RCC_GET_FLAG(RCC_FLAG_LSERDY) == RESET)
 8001510:	e00a      	b.n	8001528 <HAL_RCC_OscConfig+0x394>
      {
        if ((HAL_GetTick() - tickstart) > RCC_LSE_TIMEOUT_VALUE)
 8001512:	f7ff fb99 	bl	8000c48 <HAL_GetTick>
 8001516:	4602      	mov	r2, r0
 8001518:	693b      	ldr	r3, [r7, #16]
 800151a:	1ad3      	subs	r3, r2, r3
 800151c:	f241 3288 	movw	r2, #5000	; 0x1388
 8001520:	4293      	cmp	r3, r2
 8001522:	d901      	bls.n	8001528 <HAL_RCC_OscConfig+0x394>
        {
          return HAL_TIMEOUT;
 8001524:	2303      	movs	r3, #3
 8001526:	e0b1      	b.n	800168c <HAL_RCC_OscConfig+0x4f8>
      while (__HAL_RCC_GET_FLAG(RCC_FLAG_LSERDY) == RESET)
 8001528:	4b4b      	ldr	r3, [pc, #300]	; (8001658 <HAL_RCC_OscConfig+0x4c4>)
 800152a:	6a1b      	ldr	r3, [r3, #32]
 800152c:	f003 0302 	and.w	r3, r3, #2
 8001530:	2b00      	cmp	r3, #0
 8001532:	d0ee      	beq.n	8001512 <HAL_RCC_OscConfig+0x37e>
 8001534:	e014      	b.n	8001560 <HAL_RCC_OscConfig+0x3cc>
      }
    }
    else
    {
      /* Get Start Tick */
      tickstart = HAL_GetTick();
 8001536:	f7ff fb87 	bl	8000c48 <HAL_GetTick>
 800153a:	6138      	str	r0, [r7, #16]

      /* Wait till LSE is disabled */
      while (__HAL_RCC_GET_FLAG(RCC_FLAG_LSERDY) != RESET)
 800153c:	e00a      	b.n	8001554 <HAL_RCC_OscConfig+0x3c0>
      {
        if ((HAL_GetTick() - tickstart) > RCC_LSE_TIMEOUT_VALUE)
 800153e:	f7ff fb83 	bl	8000c48 <HAL_GetTick>
 8001542:	4602      	mov	r2, r0
 8001544:	693b      	ldr	r3, [r7, #16]
 8001546:	1ad3      	subs	r3, r2, r3
 8001548:	f241 3288 	movw	r2, #5000	; 0x1388
 800154c:	4293      	cmp	r3, r2
 800154e:	d901      	bls.n	8001554 <HAL_RCC_OscConfig+0x3c0>
        {
          return HAL_TIMEOUT;
 8001550:	2303      	movs	r3, #3
 8001552:	e09b      	b.n	800168c <HAL_RCC_OscConfig+0x4f8>
      while (__HAL_RCC_GET_FLAG(RCC_FLAG_LSERDY) != RESET)
 8001554:	4b40      	ldr	r3, [pc, #256]	; (8001658 <HAL_RCC_OscConfig+0x4c4>)
 8001556:	6a1b      	ldr	r3, [r3, #32]
 8001558:	f003 0302 	and.w	r3, r3, #2
 800155c:	2b00      	cmp	r3, #0
 800155e:	d1ee      	bne.n	800153e <HAL_RCC_OscConfig+0x3aa>
        }
      }
    }

    /* Require to disable power clock if necessary */
    if (pwrclkchanged == SET)
 8001560:	7dfb      	ldrb	r3, [r7, #23]
 8001562:	2b01      	cmp	r3, #1
 8001564:	d105      	bne.n	8001572 <HAL_RCC_OscConfig+0x3de>
    {
      __HAL_RCC_PWR_CLK_DISABLE();
 8001566:	4b3c      	ldr	r3, [pc, #240]	; (8001658 <HAL_RCC_OscConfig+0x4c4>)
 8001568:	69db      	ldr	r3, [r3, #28]
 800156a:	4a3b      	ldr	r2, [pc, #236]	; (8001658 <HAL_RCC_OscConfig+0x4c4>)
 800156c:	f023 5380 	bic.w	r3, r3, #268435456	; 0x10000000
 8001570:	61d3      	str	r3, [r2, #28]

#endif /* RCC_CR_PLL2ON */
  /*-------------------------------- PLL Configuration -----------------------*/
  /* Check the parameters */
  assert_param(IS_RCC_PLL(RCC_OscInitStruct->PLL.PLLState));
  if ((RCC_OscInitStruct->PLL.PLLState) != RCC_PLL_NONE)
 8001572:	687b      	ldr	r3, [r7, #4]
 8001574:	69db      	ldr	r3, [r3, #28]
 8001576:	2b00      	cmp	r3, #0
 8001578:	f000 8087 	beq.w	800168a <HAL_RCC_OscConfig+0x4f6>
  {
    /* Check if the PLL is used as system clock or not */
    if (__HAL_RCC_GET_SYSCLK_SOURCE() != RCC_SYSCLKSOURCE_STATUS_PLLCLK)
 800157c:	4b36      	ldr	r3, [pc, #216]	; (8001658 <HAL_RCC_OscConfig+0x4c4>)
 800157e:	685b      	ldr	r3, [r3, #4]
 8001580:	f003 030c 	and.w	r3, r3, #12
 8001584:	2b08      	cmp	r3, #8
 8001586:	d061      	beq.n	800164c <HAL_RCC_OscConfig+0x4b8>
    {
      if ((RCC_OscInitStruct->PLL.PLLState) == RCC_PLL_ON)
 8001588:	687b      	ldr	r3, [r7, #4]
 800158a:	69db      	ldr	r3, [r3, #28]
 800158c:	2b02      	cmp	r3, #2
 800158e:	d146      	bne.n	800161e <HAL_RCC_OscConfig+0x48a>
        /* Check the parameters */
        assert_param(IS_RCC_PLLSOURCE(RCC_OscInitStruct->PLL.PLLSource));
        assert_param(IS_RCC_PLL_MUL(RCC_OscInitStruct->PLL.PLLMUL));

        /* Disable the main PLL. */
        __HAL_RCC_PLL_DISABLE();
 8001590:	4b33      	ldr	r3, [pc, #204]	; (8001660 <HAL_RCC_OscConfig+0x4cc>)
 8001592:	2200      	movs	r2, #0
 8001594:	601a      	str	r2, [r3, #0]

        /* Get Start Tick */
        tickstart = HAL_GetTick();
 8001596:	f7ff fb57 	bl	8000c48 <HAL_GetTick>
 800159a:	6138      	str	r0, [r7, #16]

        /* Wait till PLL is disabled */
        while (__HAL_RCC_GET_FLAG(RCC_FLAG_PLLRDY)  != RESET)
 800159c:	e008      	b.n	80015b0 <HAL_RCC_OscConfig+0x41c>
        {
          if ((HAL_GetTick() - tickstart) > PLL_TIMEOUT_VALUE)
 800159e:	f7ff fb53 	bl	8000c48 <HAL_GetTick>
 80015a2:	4602      	mov	r2, r0
 80015a4:	693b      	ldr	r3, [r7, #16]
 80015a6:	1ad3      	subs	r3, r2, r3
 80015a8:	2b02      	cmp	r3, #2
 80015aa:	d901      	bls.n	80015b0 <HAL_RCC_OscConfig+0x41c>
          {
            return HAL_TIMEOUT;
 80015ac:	2303      	movs	r3, #3
 80015ae:	e06d      	b.n	800168c <HAL_RCC_OscConfig+0x4f8>
        while (__HAL_RCC_GET_FLAG(RCC_FLAG_PLLRDY)  != RESET)
 80015b0:	4b29      	ldr	r3, [pc, #164]	; (8001658 <HAL_RCC_OscConfig+0x4c4>)
 80015b2:	681b      	ldr	r3, [r3, #0]
 80015b4:	f003 7300 	and.w	r3, r3, #33554432	; 0x2000000
 80015b8:	2b00      	cmp	r3, #0
 80015ba:	d1f0      	bne.n	800159e <HAL_RCC_OscConfig+0x40a>
          }
        }

        /* Configure the HSE prediv factor --------------------------------*/
        /* It can be written only when the PLL is disabled. Not used in PLL source is different than HSE */
        if (RCC_OscInitStruct->PLL.PLLSource == RCC_PLLSOURCE_HSE)
 80015bc:	687b      	ldr	r3, [r7, #4]
 80015be:	6a1b      	ldr	r3, [r3, #32]
 80015c0:	f5b3 3f80 	cmp.w	r3, #65536	; 0x10000
 80015c4:	d108      	bne.n	80015d8 <HAL_RCC_OscConfig+0x444>
          /* Set PREDIV1 source */
          SET_BIT(RCC->CFGR2, RCC_OscInitStruct->Prediv1Source);
#endif /* RCC_CFGR2_PREDIV1SRC */

          /* Set PREDIV1 Value */
          __HAL_RCC_HSE_PREDIV_CONFIG(RCC_OscInitStruct->HSEPredivValue);
 80015c6:	4b24      	ldr	r3, [pc, #144]	; (8001658 <HAL_RCC_OscConfig+0x4c4>)
 80015c8:	685b      	ldr	r3, [r3, #4]
 80015ca:	f423 3200 	bic.w	r2, r3, #131072	; 0x20000
 80015ce:	687b      	ldr	r3, [r7, #4]
 80015d0:	689b      	ldr	r3, [r3, #8]
 80015d2:	4921      	ldr	r1, [pc, #132]	; (8001658 <HAL_RCC_OscConfig+0x4c4>)
 80015d4:	4313      	orrs	r3, r2
 80015d6:	604b      	str	r3, [r1, #4]
        }

        /* Configure the main PLL clock source and multiplication factors. */
        __HAL_RCC_PLL_CONFIG(RCC_OscInitStruct->PLL.PLLSource,
 80015d8:	4b1f      	ldr	r3, [pc, #124]	; (8001658 <HAL_RCC_OscConfig+0x4c4>)
 80015da:	685b      	ldr	r3, [r3, #4]
 80015dc:	f423 1274 	bic.w	r2, r3, #3997696	; 0x3d0000
 80015e0:	687b      	ldr	r3, [r7, #4]
 80015e2:	6a19      	ldr	r1, [r3, #32]
 80015e4:	687b      	ldr	r3, [r7, #4]
 80015e6:	6a5b      	ldr	r3, [r3, #36]	; 0x24
 80015e8:	430b      	orrs	r3, r1
 80015ea:	491b      	ldr	r1, [pc, #108]	; (8001658 <HAL_RCC_OscConfig+0x4c4>)
 80015ec:	4313      	orrs	r3, r2
 80015ee:	604b      	str	r3, [r1, #4]
                             RCC_OscInitStruct->PLL.PLLMUL);
        /* Enable the main PLL. */
        __HAL_RCC_PLL_ENABLE();
 80015f0:	4b1b      	ldr	r3, [pc, #108]	; (8001660 <HAL_RCC_OscConfig+0x4cc>)
 80015f2:	2201      	movs	r2, #1
 80015f4:	601a      	str	r2, [r3, #0]

        /* Get Start Tick */
        tickstart = HAL_GetTick();
 80015f6:	f7ff fb27 	bl	8000c48 <HAL_GetTick>
 80015fa:	6138      	str	r0, [r7, #16]

        /* Wait till PLL is ready */
        while (__HAL_RCC_GET_FLAG(RCC_FLAG_PLLRDY)  == RESET)
 80015fc:	e008      	b.n	8001610 <HAL_RCC_OscConfig+0x47c>
        {
          if ((HAL_GetTick() - tickstart) > PLL_TIMEOUT_VALUE)
 80015fe:	f7ff fb23 	bl	8000c48 <HAL_GetTick>
 8001602:	4602      	mov	r2, r0
 8001604:	693b      	ldr	r3, [r7, #16]
 8001606:	1ad3      	subs	r3, r2, r3
 8001608:	2b02      	cmp	r3, #2
 800160a:	d901      	bls.n	8001610 <HAL_RCC_OscConfig+0x47c>
          {
            return HAL_TIMEOUT;
 800160c:	2303      	movs	r3, #3
 800160e:	e03d      	b.n	800168c <HAL_RCC_OscConfig+0x4f8>
        while (__HAL_RCC_GET_FLAG(RCC_FLAG_PLLRDY)  == RESET)
 8001610:	4b11      	ldr	r3, [pc, #68]	; (8001658 <HAL_RCC_OscConfig+0x4c4>)
 8001612:	681b      	ldr	r3, [r3, #0]
 8001614:	f003 7300 	and.w	r3, r3, #33554432	; 0x2000000
 8001618:	2b00      	cmp	r3, #0
 800161a:	d0f0      	beq.n	80015fe <HAL_RCC_OscConfig+0x46a>
 800161c:	e035      	b.n	800168a <HAL_RCC_OscConfig+0x4f6>
        }
      }
      else
      {
        /* Disable the main PLL. */
        __HAL_RCC_PLL_DISABLE();
 800161e:	4b10      	ldr	r3, [pc, #64]	; (8001660 <HAL_RCC_OscConfig+0x4cc>)
 8001620:	2200      	movs	r2, #0
 8001622:	601a      	str	r2, [r3, #0]

        /* Get Start Tick */
        tickstart = HAL_GetTick();
 8001624:	f7ff fb10 	bl	8000c48 <HAL_GetTick>
 8001628:	6138      	str	r0, [r7, #16]

        /* Wait till PLL is disabled */
        while (__HAL_RCC_GET_FLAG(RCC_FLAG_PLLRDY)  != RESET)
 800162a:	e008      	b.n	800163e <HAL_RCC_OscConfig+0x4aa>
        {
          if ((HAL_GetTick() - tickstart) > PLL_TIMEOUT_VALUE)
 800162c:	f7ff fb0c 	bl	8000c48 <HAL_GetTick>
 8001630:	4602      	mov	r2, r0
 8001632:	693b      	ldr	r3, [r7, #16]
 8001634:	1ad3      	subs	r3, r2, r3
 8001636:	2b02      	cmp	r3, #2
 8001638:	d901      	bls.n	800163e <HAL_RCC_OscConfig+0x4aa>
          {
            return HAL_TIMEOUT;
 800163a:	2303      	movs	r3, #3
 800163c:	e026      	b.n	800168c <HAL_RCC_OscConfig+0x4f8>
        while (__HAL_RCC_GET_FLAG(RCC_FLAG_PLLRDY)  != RESET)
 800163e:	4b06      	ldr	r3, [pc, #24]	; (8001658 <HAL_RCC_OscConfig+0x4c4>)
 8001640:	681b      	ldr	r3, [r3, #0]
 8001642:	f003 7300 	and.w	r3, r3, #33554432	; 0x2000000
 8001646:	2b00      	cmp	r3, #0
 8001648:	d1f0      	bne.n	800162c <HAL_RCC_OscConfig+0x498>
 800164a:	e01e      	b.n	800168a <HAL_RCC_OscConfig+0x4f6>
      }
    }
    else
    {
      /* Check if there is a request to disable the PLL used as System clock source */
      if ((RCC_OscInitStruct->PLL.PLLState) == RCC_PLL_OFF)
 800164c:	687b      	ldr	r3, [r7, #4]
 800164e:	69db      	ldr	r3, [r3, #28]
 8001650:	2b01      	cmp	r3, #1
 8001652:	d107      	bne.n	8001664 <HAL_RCC_OscConfig+0x4d0>
      {
        return HAL_ERROR;
 8001654:	2301      	movs	r3, #1
 8001656:	e019      	b.n	800168c <HAL_RCC_OscConfig+0x4f8>
 8001658:	40021000 	.word	0x40021000
 800165c:	40007000 	.word	0x40007000
 8001660:	42420060 	.word	0x42420060
      }
      else
      {
        /* Do not return HAL_ERROR if request repeats the current configuration */
        pll_config = RCC->CFGR;
 8001664:	4b0b      	ldr	r3, [pc, #44]	; (8001694 <HAL_RCC_OscConfig+0x500>)
 8001666:	685b      	ldr	r3, [r3, #4]
 8001668:	60fb      	str	r3, [r7, #12]
        if ((READ_BIT(pll_config, RCC_CFGR_PLLSRC) != RCC_OscInitStruct->PLL.PLLSource) ||
 800166a:	68fb      	ldr	r3, [r7, #12]
 800166c:	f403 3280 	and.w	r2, r3, #65536	; 0x10000
 8001670:	687b      	ldr	r3, [r7, #4]
 8001672:	6a1b      	ldr	r3, [r3, #32]
 8001674:	429a      	cmp	r2, r3
 8001676:	d106      	bne.n	8001686 <HAL_RCC_OscConfig+0x4f2>
            (READ_BIT(pll_config, RCC_CFGR_PLLMULL) != RCC_OscInitStruct->PLL.PLLMUL))
 8001678:	68fb      	ldr	r3, [r7, #12]
 800167a:	f403 1270 	and.w	r2, r3, #3932160	; 0x3c0000
 800167e:	687b      	ldr	r3, [r7, #4]
 8001680:	6a5b      	ldr	r3, [r3, #36]	; 0x24
        if ((READ_BIT(pll_config, RCC_CFGR_PLLSRC) != RCC_OscInitStruct->PLL.PLLSource) ||
 8001682:	429a      	cmp	r2, r3
 8001684:	d001      	beq.n	800168a <HAL_RCC_OscConfig+0x4f6>
        {
          return HAL_ERROR;
 8001686:	2301      	movs	r3, #1
 8001688:	e000      	b.n	800168c <HAL_RCC_OscConfig+0x4f8>
        }
      }
    }
  }

  return HAL_OK;
 800168a:	2300      	movs	r3, #0
}
 800168c:	4618      	mov	r0, r3
 800168e:	3718      	adds	r7, #24
 8001690:	46bd      	mov	sp, r7
 8001692:	bd80      	pop	{r7, pc}
 8001694:	40021000 	.word	0x40021000

08001698 <HAL_RCC_ClockConfig>:
  *         You can use @ref HAL_RCC_GetClockConfig() function to know which clock is
  *         currently used as system clock source.
  * @retval HAL status
  */
HAL_StatusTypeDef HAL_RCC_ClockConfig(RCC_ClkInitTypeDef  *RCC_ClkInitStruct, uint32_t FLatency)
{
 8001698:	b580      	push	{r7, lr}
 800169a:	b084      	sub	sp, #16
 800169c:	af00      	add	r7, sp, #0
 800169e:	6078      	str	r0, [r7, #4]
 80016a0:	6039      	str	r1, [r7, #0]
  uint32_t tickstart;

  /* Check Null pointer */
  if (RCC_ClkInitStruct == NULL)
 80016a2:	687b      	ldr	r3, [r7, #4]
 80016a4:	2b00      	cmp	r3, #0
 80016a6:	d101      	bne.n	80016ac <HAL_RCC_ClockConfig+0x14>
  {
    return HAL_ERROR;
 80016a8:	2301      	movs	r3, #1
 80016aa:	e0d0      	b.n	800184e <HAL_RCC_ClockConfig+0x1b6>
  must be correctly programmed according to the frequency of the CPU clock
    (HCLK) of the device. */

#if defined(FLASH_ACR_LATENCY)
  /* Increasing the number of wait states because of higher CPU frequency */
  if (FLatency > __HAL_FLASH_GET_LATENCY())
 80016ac:	4b6a      	ldr	r3, [pc, #424]	; (8001858 <HAL_RCC_ClockConfig+0x1c0>)
 80016ae:	681b      	ldr	r3, [r3, #0]
 80016b0:	f003 0307 	and.w	r3, r3, #7
 80016b4:	683a      	ldr	r2, [r7, #0]
 80016b6:	429a      	cmp	r2, r3
 80016b8:	d910      	bls.n	80016dc <HAL_RCC_ClockConfig+0x44>
  {
    /* Program the new number of wait states to the LATENCY bits in the FLASH_ACR register */
    __HAL_FLASH_SET_LATENCY(FLatency);
 80016ba:	4b67      	ldr	r3, [pc, #412]	; (8001858 <HAL_RCC_ClockConfig+0x1c0>)
 80016bc:	681b      	ldr	r3, [r3, #0]
 80016be:	f023 0207 	bic.w	r2, r3, #7
 80016c2:	4965      	ldr	r1, [pc, #404]	; (8001858 <HAL_RCC_ClockConfig+0x1c0>)
 80016c4:	683b      	ldr	r3, [r7, #0]
 80016c6:	4313      	orrs	r3, r2
 80016c8:	600b      	str	r3, [r1, #0]

    /* Check that the new number of wait states is taken into account to access the Flash
    memory by reading the FLASH_ACR register */
    if (__HAL_FLASH_GET_LATENCY() != FLatency)
 80016ca:	4b63      	ldr	r3, [pc, #396]	; (8001858 <HAL_RCC_ClockConfig+0x1c0>)
 80016cc:	681b      	ldr	r3, [r3, #0]
 80016ce:	f003 0307 	and.w	r3, r3, #7
 80016d2:	683a      	ldr	r2, [r7, #0]
 80016d4:	429a      	cmp	r2, r3
 80016d6:	d001      	beq.n	80016dc <HAL_RCC_ClockConfig+0x44>
  {
    return HAL_ERROR;
 80016d8:	2301      	movs	r3, #1
 80016da:	e0b8      	b.n	800184e <HAL_RCC_ClockConfig+0x1b6>
  }
}

#endif /* FLASH_ACR_LATENCY */
/*-------------------------- HCLK Configuration --------------------------*/
if (((RCC_ClkInitStruct->ClockType) & RCC_CLOCKTYPE_HCLK) == RCC_CLOCKTYPE_HCLK)
 80016dc:	687b      	ldr	r3, [r7, #4]
 80016de:	681b      	ldr	r3, [r3, #0]
 80016e0:	f003 0302 	and.w	r3, r3, #2
 80016e4:	2b00      	cmp	r3, #0
 80016e6:	d020      	beq.n	800172a <HAL_RCC_ClockConfig+0x92>
  {
    /* Set the highest APBx dividers in order to ensure that we do not go through
    a non-spec phase whatever we decrease or increase HCLK. */
    if (((RCC_ClkInitStruct->ClockType) & RCC_CLOCKTYPE_PCLK1) == RCC_CLOCKTYPE_PCLK1)
 80016e8:	687b      	ldr	r3, [r7, #4]
 80016ea:	681b      	ldr	r3, [r3, #0]
 80016ec:	f003 0304 	and.w	r3, r3, #4
 80016f0:	2b00      	cmp	r3, #0
 80016f2:	d005      	beq.n	8001700 <HAL_RCC_ClockConfig+0x68>
    {
      MODIFY_REG(RCC->CFGR, RCC_CFGR_PPRE1, RCC_HCLK_DIV16);
 80016f4:	4b59      	ldr	r3, [pc, #356]	; (800185c <HAL_RCC_ClockConfig+0x1c4>)
 80016f6:	685b      	ldr	r3, [r3, #4]
 80016f8:	4a58      	ldr	r2, [pc, #352]	; (800185c <HAL_RCC_ClockConfig+0x1c4>)
 80016fa:	f443 63e0 	orr.w	r3, r3, #1792	; 0x700
 80016fe:	6053      	str	r3, [r2, #4]
    }

    if (((RCC_ClkInitStruct->ClockType) & RCC_CLOCKTYPE_PCLK2) == RCC_CLOCKTYPE_PCLK2)
 8001700:	687b      	ldr	r3, [r7, #4]
 8001702:	681b      	ldr	r3, [r3, #0]
 8001704:	f003 0308 	and.w	r3, r3, #8
 8001708:	2b00      	cmp	r3, #0
 800170a:	d005      	beq.n	8001718 <HAL_RCC_ClockConfig+0x80>
    {
      MODIFY_REG(RCC->CFGR, RCC_CFGR_PPRE2, (RCC_HCLK_DIV16 << 3));
 800170c:	4b53      	ldr	r3, [pc, #332]	; (800185c <HAL_RCC_ClockConfig+0x1c4>)
 800170e:	685b      	ldr	r3, [r3, #4]
 8001710:	4a52      	ldr	r2, [pc, #328]	; (800185c <HAL_RCC_ClockConfig+0x1c4>)
 8001712:	f443 5360 	orr.w	r3, r3, #14336	; 0x3800
 8001716:	6053      	str	r3, [r2, #4]
    }

    /* Set the new HCLK clock divider */
    assert_param(IS_RCC_HCLK(RCC_ClkInitStruct->AHBCLKDivider));
    MODIFY_REG(RCC->CFGR, RCC_CFGR_HPRE, RCC_ClkInitStruct->AHBCLKDivider);
 8001718:	4b50      	ldr	r3, [pc, #320]	; (800185c <HAL_RCC_ClockConfig+0x1c4>)
 800171a:	685b      	ldr	r3, [r3, #4]
 800171c:	f023 02f0 	bic.w	r2, r3, #240	; 0xf0
 8001720:	687b      	ldr	r3, [r7, #4]
 8001722:	689b      	ldr	r3, [r3, #8]
 8001724:	494d      	ldr	r1, [pc, #308]	; (800185c <HAL_RCC_ClockConfig+0x1c4>)
 8001726:	4313      	orrs	r3, r2
 8001728:	604b      	str	r3, [r1, #4]
  }

  /*------------------------- SYSCLK Configuration ---------------------------*/
  if (((RCC_ClkInitStruct->ClockType) & RCC_CLOCKTYPE_SYSCLK) == RCC_CLOCKTYPE_SYSCLK)
 800172a:	687b      	ldr	r3, [r7, #4]
 800172c:	681b      	ldr	r3, [r3, #0]
 800172e:	f003 0301 	and.w	r3, r3, #1
 8001732:	2b00      	cmp	r3, #0
 8001734:	d040      	beq.n	80017b8 <HAL_RCC_ClockConfig+0x120>
  {
    assert_param(IS_RCC_SYSCLKSOURCE(RCC_ClkInitStruct->SYSCLKSource));

    /* HSE is selected as System Clock Source */
    if (RCC_ClkInitStruct->SYSCLKSource == RCC_SYSCLKSOURCE_HSE)
 8001736:	687b      	ldr	r3, [r7, #4]
 8001738:	685b      	ldr	r3, [r3, #4]
 800173a:	2b01      	cmp	r3, #1
 800173c:	d107      	bne.n	800174e <HAL_RCC_ClockConfig+0xb6>
    {
      /* Check the HSE ready flag */
      if (__HAL_RCC_GET_FLAG(RCC_FLAG_HSERDY) == RESET)
 800173e:	4b47      	ldr	r3, [pc, #284]	; (800185c <HAL_RCC_ClockConfig+0x1c4>)
 8001740:	681b      	ldr	r3, [r3, #0]
 8001742:	f403 3300 	and.w	r3, r3, #131072	; 0x20000
 8001746:	2b00      	cmp	r3, #0
 8001748:	d115      	bne.n	8001776 <HAL_RCC_ClockConfig+0xde>
      {
        return HAL_ERROR;
 800174a:	2301      	movs	r3, #1
 800174c:	e07f      	b.n	800184e <HAL_RCC_ClockConfig+0x1b6>
      }
    }
    /* PLL is selected as System Clock Source */
    else if (RCC_ClkInitStruct->SYSCLKSource == RCC_SYSCLKSOURCE_PLLCLK)
 800174e:	687b      	ldr	r3, [r7, #4]
 8001750:	685b      	ldr	r3, [r3, #4]
 8001752:	2b02      	cmp	r3, #2
 8001754:	d107      	bne.n	8001766 <HAL_RCC_ClockConfig+0xce>
    {
      /* Check the PLL ready flag */
      if (__HAL_RCC_GET_FLAG(RCC_FLAG_PLLRDY) == RESET)
 8001756:	4b41      	ldr	r3, [pc, #260]	; (800185c <HAL_RCC_ClockConfig+0x1c4>)
 8001758:	681b      	ldr	r3, [r3, #0]
 800175a:	f003 7300 	and.w	r3, r3, #33554432	; 0x2000000
 800175e:	2b00      	cmp	r3, #0
 8001760:	d109      	bne.n	8001776 <HAL_RCC_ClockConfig+0xde>
      {
        return HAL_ERROR;
 8001762:	2301      	movs	r3, #1
 8001764:	e073      	b.n	800184e <HAL_RCC_ClockConfig+0x1b6>
    }
    /* HSI is selected as System Clock Source */
    else
    {
      /* Check the HSI ready flag */
      if (__HAL_RCC_GET_FLAG(RCC_FLAG_HSIRDY) == RESET)
 8001766:	4b3d      	ldr	r3, [pc, #244]	; (800185c <HAL_RCC_ClockConfig+0x1c4>)
 8001768:	681b      	ldr	r3, [r3, #0]
 800176a:	f003 0302 	and.w	r3, r3, #2
 800176e:	2b00      	cmp	r3, #0
 8001770:	d101      	bne.n	8001776 <HAL_RCC_ClockConfig+0xde>
      {
        return HAL_ERROR;
 8001772:	2301      	movs	r3, #1
 8001774:	e06b      	b.n	800184e <HAL_RCC_ClockConfig+0x1b6>
      }
    }
    __HAL_RCC_SYSCLK_CONFIG(RCC_ClkInitStruct->SYSCLKSource);
 8001776:	4b39      	ldr	r3, [pc, #228]	; (800185c <HAL_RCC_ClockConfig+0x1c4>)
 8001778:	685b      	ldr	r3, [r3, #4]
 800177a:	f023 0203 	bic.w	r2, r3, #3
 800177e:	687b      	ldr	r3, [r7, #4]
 8001780:	685b      	ldr	r3, [r3, #4]
 8001782:	4936      	ldr	r1, [pc, #216]	; (800185c <HAL_RCC_ClockConfig+0x1c4>)
 8001784:	4313      	orrs	r3, r2
 8001786:	604b      	str	r3, [r1, #4]

    /* Get Start Tick */
    tickstart = HAL_GetTick();
 8001788:	f7ff fa5e 	bl	8000c48 <HAL_GetTick>
 800178c:	60f8      	str	r0, [r7, #12]

    while (__HAL_RCC_GET_SYSCLK_SOURCE() != (RCC_ClkInitStruct->SYSCLKSource << RCC_CFGR_SWS_Pos))
 800178e:	e00a      	b.n	80017a6 <HAL_RCC_ClockConfig+0x10e>
    {
      if ((HAL_GetTick() - tickstart) > CLOCKSWITCH_TIMEOUT_VALUE)
 8001790:	f7ff fa5a 	bl	8000c48 <HAL_GetTick>
 8001794:	4602      	mov	r2, r0
 8001796:	68fb      	ldr	r3, [r7, #12]
 8001798:	1ad3      	subs	r3, r2, r3
 800179a:	f241 3288 	movw	r2, #5000	; 0x1388
 800179e:	4293      	cmp	r3, r2
 80017a0:	d901      	bls.n	80017a6 <HAL_RCC_ClockConfig+0x10e>
      {
        return HAL_TIMEOUT;
 80017a2:	2303      	movs	r3, #3
 80017a4:	e053      	b.n	800184e <HAL_RCC_ClockConfig+0x1b6>
    while (__HAL_RCC_GET_SYSCLK_SOURCE() != (RCC_ClkInitStruct->SYSCLKSource << RCC_CFGR_SWS_Pos))
 80017a6:	4b2d      	ldr	r3, [pc, #180]	; (800185c <HAL_RCC_ClockConfig+0x1c4>)
 80017a8:	685b      	ldr	r3, [r3, #4]
 80017aa:	f003 020c 	and.w	r2, r3, #12
 80017ae:	687b      	ldr	r3, [r7, #4]
 80017b0:	685b      	ldr	r3, [r3, #4]
 80017b2:	009b      	lsls	r3, r3, #2
 80017b4:	429a      	cmp	r2, r3
 80017b6:	d1eb      	bne.n	8001790 <HAL_RCC_ClockConfig+0xf8>
    }
  }

#if defined(FLASH_ACR_LATENCY)
  /* Decreasing the number of wait states because of lower CPU frequency */
  if (FLatency < __HAL_FLASH_GET_LATENCY())
 80017b8:	4b27      	ldr	r3, [pc, #156]	; (8001858 <HAL_RCC_ClockConfig+0x1c0>)
 80017ba:	681b      	ldr	r3, [r3, #0]
 80017bc:	f003 0307 	and.w	r3, r3, #7
 80017c0:	683a      	ldr	r2, [r7, #0]
 80017c2:	429a      	cmp	r2, r3
 80017c4:	d210      	bcs.n	80017e8 <HAL_RCC_ClockConfig+0x150>
  {
    /* Program the new number of wait states to the LATENCY bits in the FLASH_ACR register */
    __HAL_FLASH_SET_LATENCY(FLatency);
 80017c6:	4b24      	ldr	r3, [pc, #144]	; (8001858 <HAL_RCC_ClockConfig+0x1c0>)
 80017c8:	681b      	ldr	r3, [r3, #0]
 80017ca:	f023 0207 	bic.w	r2, r3, #7
 80017ce:	4922      	ldr	r1, [pc, #136]	; (8001858 <HAL_RCC_ClockConfig+0x1c0>)
 80017d0:	683b      	ldr	r3, [r7, #0]
 80017d2:	4313      	orrs	r3, r2
 80017d4:	600b      	str	r3, [r1, #0]

    /* Check that the new number of wait states is taken into account to access the Flash
    memory by reading the FLASH_ACR register */
    if (__HAL_FLASH_GET_LATENCY() != FLatency)
 80017d6:	4b20      	ldr	r3, [pc, #128]	; (8001858 <HAL_RCC_ClockConfig+0x1c0>)
 80017d8:	681b      	ldr	r3, [r3, #0]
 80017da:	f003 0307 	and.w	r3, r3, #7
 80017de:	683a      	ldr	r2, [r7, #0]
 80017e0:	429a      	cmp	r2, r3
 80017e2:	d001      	beq.n	80017e8 <HAL_RCC_ClockConfig+0x150>
  {
    return HAL_ERROR;
 80017e4:	2301      	movs	r3, #1
 80017e6:	e032      	b.n	800184e <HAL_RCC_ClockConfig+0x1b6>
  }
}
#endif /* FLASH_ACR_LATENCY */

/*-------------------------- PCLK1 Configuration ---------------------------*/
if (((RCC_ClkInitStruct->ClockType) & RCC_CLOCKTYPE_PCLK1) == RCC_CLOCKTYPE_PCLK1)
 80017e8:	687b      	ldr	r3, [r7, #4]
 80017ea:	681b      	ldr	r3, [r3, #0]
 80017ec:	f003 0304 	and.w	r3, r3, #4
 80017f0:	2b00      	cmp	r3, #0
 80017f2:	d008      	beq.n	8001806 <HAL_RCC_ClockConfig+0x16e>
  {
    assert_param(IS_RCC_PCLK(RCC_ClkInitStruct->APB1CLKDivider));
    MODIFY_REG(RCC->CFGR, RCC_CFGR_PPRE1, RCC_ClkInitStruct->APB1CLKDivider);
 80017f4:	4b19      	ldr	r3, [pc, #100]	; (800185c <HAL_RCC_ClockConfig+0x1c4>)
 80017f6:	685b      	ldr	r3, [r3, #4]
 80017f8:	f423 62e0 	bic.w	r2, r3, #1792	; 0x700
 80017fc:	687b      	ldr	r3, [r7, #4]
 80017fe:	68db      	ldr	r3, [r3, #12]
 8001800:	4916      	ldr	r1, [pc, #88]	; (800185c <HAL_RCC_ClockConfig+0x1c4>)
 8001802:	4313      	orrs	r3, r2
 8001804:	604b      	str	r3, [r1, #4]
  }

  /*-------------------------- PCLK2 Configuration ---------------------------*/
  if (((RCC_ClkInitStruct->ClockType) & RCC_CLOCKTYPE_PCLK2) == RCC_CLOCKTYPE_PCLK2)
 8001806:	687b      	ldr	r3, [r7, #4]
 8001808:	681b      	ldr	r3, [r3, #0]
 800180a:	f003 0308 	and.w	r3, r3, #8
 800180e:	2b00      	cmp	r3, #0
 8001810:	d009      	beq.n	8001826 <HAL_RCC_ClockConfig+0x18e>
  {
    assert_param(IS_RCC_PCLK(RCC_ClkInitStruct->APB2CLKDivider));
    MODIFY_REG(RCC->CFGR, RCC_CFGR_PPRE2, ((RCC_ClkInitStruct->APB2CLKDivider) << 3));
 8001812:	4b12      	ldr	r3, [pc, #72]	; (800185c <HAL_RCC_ClockConfig+0x1c4>)
 8001814:	685b      	ldr	r3, [r3, #4]
 8001816:	f423 5260 	bic.w	r2, r3, #14336	; 0x3800
 800181a:	687b      	ldr	r3, [r7, #4]
 800181c:	691b      	ldr	r3, [r3, #16]
 800181e:	00db      	lsls	r3, r3, #3
 8001820:	490e      	ldr	r1, [pc, #56]	; (800185c <HAL_RCC_ClockConfig+0x1c4>)
 8001822:	4313      	orrs	r3, r2
 8001824:	604b      	str	r3, [r1, #4]
  }

  /* Update the SystemCoreClock global variable */
  SystemCoreClock = HAL_RCC_GetSysClockFreq() >> AHBPrescTable[(RCC->CFGR & RCC_CFGR_HPRE) >> RCC_CFGR_HPRE_Pos];
 8001826:	f000 f821 	bl	800186c <HAL_RCC_GetSysClockFreq>
 800182a:	4602      	mov	r2, r0
 800182c:	4b0b      	ldr	r3, [pc, #44]	; (800185c <HAL_RCC_ClockConfig+0x1c4>)
 800182e:	685b      	ldr	r3, [r3, #4]
 8001830:	091b      	lsrs	r3, r3, #4
 8001832:	f003 030f 	and.w	r3, r3, #15
 8001836:	490a      	ldr	r1, [pc, #40]	; (8001860 <HAL_RCC_ClockConfig+0x1c8>)
 8001838:	5ccb      	ldrb	r3, [r1, r3]
 800183a:	fa22 f303 	lsr.w	r3, r2, r3
 800183e:	4a09      	ldr	r2, [pc, #36]	; (8001864 <HAL_RCC_ClockConfig+0x1cc>)
 8001840:	6013      	str	r3, [r2, #0]

  /* Configure the source of time base considering new system clocks settings*/
  HAL_InitTick(uwTickPrio);
 8001842:	4b09      	ldr	r3, [pc, #36]	; (8001868 <HAL_RCC_ClockConfig+0x1d0>)
 8001844:	681b      	ldr	r3, [r3, #0]
 8001846:	4618      	mov	r0, r3
 8001848:	f7ff f9bc 	bl	8000bc4 <HAL_InitTick>

  return HAL_OK;
 800184c:	2300      	movs	r3, #0
}
 800184e:	4618      	mov	r0, r3
 8001850:	3710      	adds	r7, #16
 8001852:	46bd      	mov	sp, r7
 8001854:	bd80      	pop	{r7, pc}
 8001856:	bf00      	nop
 8001858:	40022000 	.word	0x40022000
 800185c:	40021000 	.word	0x40021000
 8001860:	08002710 	.word	0x08002710
 8001864:	20000000 	.word	0x20000000
 8001868:	20000004 	.word	0x20000004

0800186c <HAL_RCC_GetSysClockFreq>:
  *         right SYSCLK value. Otherwise, any configuration based on this function will be incorrect.
  *
  * @retval SYSCLK frequency
  */
uint32_t HAL_RCC_GetSysClockFreq(void)
{
 800186c:	b480      	push	{r7}
 800186e:	b087      	sub	sp, #28
 8001870:	af00      	add	r7, sp, #0
#else
  static const uint8_t aPredivFactorTable[2U] = {1, 2};
#endif /*RCC_CFGR2_PREDIV1*/

#endif
  uint32_t tmpreg = 0U, prediv = 0U, pllclk = 0U, pllmul = 0U;
 8001872:	2300      	movs	r3, #0
 8001874:	60fb      	str	r3, [r7, #12]
 8001876:	2300      	movs	r3, #0
 8001878:	60bb      	str	r3, [r7, #8]
 800187a:	2300      	movs	r3, #0
 800187c:	617b      	str	r3, [r7, #20]
 800187e:	2300      	movs	r3, #0
 8001880:	607b      	str	r3, [r7, #4]
  uint32_t sysclockfreq = 0U;
 8001882:	2300      	movs	r3, #0
 8001884:	613b      	str	r3, [r7, #16]
#if defined(RCC_CFGR2_PREDIV1SRC)
  uint32_t prediv2 = 0U, pll2mul = 0U;
#endif /*RCC_CFGR2_PREDIV1SRC*/

  tmpreg = RCC->CFGR;
 8001886:	4b1e      	ldr	r3, [pc, #120]	; (8001900 <HAL_RCC_GetSysClockFreq+0x94>)
 8001888:	685b      	ldr	r3, [r3, #4]
 800188a:	60fb      	str	r3, [r7, #12]

  /* Get SYSCLK source -------------------------------------------------------*/
  switch (tmpreg & RCC_CFGR_SWS)
 800188c:	68fb      	ldr	r3, [r7, #12]
 800188e:	f003 030c 	and.w	r3, r3, #12
 8001892:	2b04      	cmp	r3, #4
 8001894:	d002      	beq.n	800189c <HAL_RCC_GetSysClockFreq+0x30>
 8001896:	2b08      	cmp	r3, #8
 8001898:	d003      	beq.n	80018a2 <HAL_RCC_GetSysClockFreq+0x36>
 800189a:	e027      	b.n	80018ec <HAL_RCC_GetSysClockFreq+0x80>
  {
    case RCC_SYSCLKSOURCE_STATUS_HSE:  /* HSE used as system clock */
    {
      sysclockfreq = HSE_VALUE;
 800189c:	4b19      	ldr	r3, [pc, #100]	; (8001904 <HAL_RCC_GetSysClockFreq+0x98>)
 800189e:	613b      	str	r3, [r7, #16]
      break;
 80018a0:	e027      	b.n	80018f2 <HAL_RCC_GetSysClockFreq+0x86>
    }
    case RCC_SYSCLKSOURCE_STATUS_PLLCLK:  /* PLL used as system clock */
    {
      pllmul = aPLLMULFactorTable[(uint32_t)(tmpreg & RCC_CFGR_PLLMULL) >> RCC_CFGR_PLLMULL_Pos];
 80018a2:	68fb      	ldr	r3, [r7, #12]
 80018a4:	0c9b      	lsrs	r3, r3, #18
 80018a6:	f003 030f 	and.w	r3, r3, #15
 80018aa:	4a17      	ldr	r2, [pc, #92]	; (8001908 <HAL_RCC_GetSysClockFreq+0x9c>)
 80018ac:	5cd3      	ldrb	r3, [r2, r3]
 80018ae:	607b      	str	r3, [r7, #4]
      if ((tmpreg & RCC_CFGR_PLLSRC) != RCC_PLLSOURCE_HSI_DIV2)
 80018b0:	68fb      	ldr	r3, [r7, #12]
 80018b2:	f403 3380 	and.w	r3, r3, #65536	; 0x10000
 80018b6:	2b00      	cmp	r3, #0
 80018b8:	d010      	beq.n	80018dc <HAL_RCC_GetSysClockFreq+0x70>
      {
#if defined(RCC_CFGR2_PREDIV1)
        prediv = aPredivFactorTable[(uint32_t)(RCC->CFGR2 & RCC_CFGR2_PREDIV1) >> RCC_CFGR2_PREDIV1_Pos];
#else
        prediv = aPredivFactorTable[(uint32_t)(RCC->CFGR & RCC_CFGR_PLLXTPRE) >> RCC_CFGR_PLLXTPRE_Pos];
 80018ba:	4b11      	ldr	r3, [pc, #68]	; (8001900 <HAL_RCC_GetSysClockFreq+0x94>)
 80018bc:	685b      	ldr	r3, [r3, #4]
 80018be:	0c5b      	lsrs	r3, r3, #17
 80018c0:	f003 0301 	and.w	r3, r3, #1
 80018c4:	4a11      	ldr	r2, [pc, #68]	; (800190c <HAL_RCC_GetSysClockFreq+0xa0>)
 80018c6:	5cd3      	ldrb	r3, [r2, r3]
 80018c8:	60bb      	str	r3, [r7, #8]
        {
          pllclk = pllclk / 2;
        }
#else
        /* HSE used as PLL clock source : PLLCLK = HSE/PREDIV1 * PLLMUL */
        pllclk = (uint32_t)((HSE_VALUE  * pllmul) / prediv);
 80018ca:	687b      	ldr	r3, [r7, #4]
 80018cc:	4a0d      	ldr	r2, [pc, #52]	; (8001904 <HAL_RCC_GetSysClockFreq+0x98>)
 80018ce:	fb03 f202 	mul.w	r2, r3, r2
 80018d2:	68bb      	ldr	r3, [r7, #8]
 80018d4:	fbb2 f3f3 	udiv	r3, r2, r3
 80018d8:	617b      	str	r3, [r7, #20]
 80018da:	e004      	b.n	80018e6 <HAL_RCC_GetSysClockFreq+0x7a>
#endif /*RCC_CFGR2_PREDIV1SRC*/
      }
      else
      {
        /* HSI used as PLL clock source : PLLCLK = HSI/2 * PLLMUL */
        pllclk = (uint32_t)((HSI_VALUE >> 1) * pllmul);
 80018dc:	687b      	ldr	r3, [r7, #4]
 80018de:	4a0c      	ldr	r2, [pc, #48]	; (8001910 <HAL_RCC_GetSysClockFreq+0xa4>)
 80018e0:	fb02 f303 	mul.w	r3, r2, r3
 80018e4:	617b      	str	r3, [r7, #20]
      }
      sysclockfreq = pllclk;
 80018e6:	697b      	ldr	r3, [r7, #20]
 80018e8:	613b      	str	r3, [r7, #16]
      break;
 80018ea:	e002      	b.n	80018f2 <HAL_RCC_GetSysClockFreq+0x86>
    }
    case RCC_SYSCLKSOURCE_STATUS_HSI:  /* HSI used as system clock source */
    default: /* HSI used as system clock */
    {
      sysclockfreq = HSI_VALUE;
 80018ec:	4b05      	ldr	r3, [pc, #20]	; (8001904 <HAL_RCC_GetSysClockFreq+0x98>)
 80018ee:	613b      	str	r3, [r7, #16]
      break;
 80018f0:	bf00      	nop
    }
  }
  return sysclockfreq;
 80018f2:	693b      	ldr	r3, [r7, #16]
}
 80018f4:	4618      	mov	r0, r3
 80018f6:	371c      	adds	r7, #28
 80018f8:	46bd      	mov	sp, r7
 80018fa:	bc80      	pop	{r7}
 80018fc:	4770      	bx	lr
 80018fe:	bf00      	nop
 8001900:	40021000 	.word	0x40021000
 8001904:	007a1200 	.word	0x007a1200
 8001908:	08002728 	.word	0x08002728
 800190c:	08002738 	.word	0x08002738
 8001910:	003d0900 	.word	0x003d0900

08001914 <HAL_RCC_GetHCLKFreq>:
  * @note   The SystemCoreClock CMSIS variable is used to store System Clock Frequency
  *         and updated within this function
  * @retval HCLK frequency
  */
uint32_t HAL_RCC_GetHCLKFreq(void)
{
 8001914:	b480      	push	{r7}
 8001916:	af00      	add	r7, sp, #0
  return SystemCoreClock;
 8001918:	4b02      	ldr	r3, [pc, #8]	; (8001924 <HAL_RCC_GetHCLKFreq+0x10>)
 800191a:	681b      	ldr	r3, [r3, #0]
}
 800191c:	4618      	mov	r0, r3
 800191e:	46bd      	mov	sp, r7
 8001920:	bc80      	pop	{r7}
 8001922:	4770      	bx	lr
 8001924:	20000000 	.word	0x20000000

08001928 <HAL_RCC_GetPCLK1Freq>:
  * @note   Each time PCLK1 changes, this function must be called to update the
  *         right PCLK1 value. Otherwise, any configuration based on this function will be incorrect.
  * @retval PCLK1 frequency
  */
uint32_t HAL_RCC_GetPCLK1Freq(void)
{
 8001928:	b580      	push	{r7, lr}
 800192a:	af00      	add	r7, sp, #0
  /* Get HCLK source and Compute PCLK1 frequency ---------------------------*/
  return (HAL_RCC_GetHCLKFreq() >> APBPrescTable[(RCC->CFGR & RCC_CFGR_PPRE1) >> RCC_CFGR_PPRE1_Pos]);
 800192c:	f7ff fff2 	bl	8001914 <HAL_RCC_GetHCLKFreq>
 8001930:	4602      	mov	r2, r0
 8001932:	4b05      	ldr	r3, [pc, #20]	; (8001948 <HAL_RCC_GetPCLK1Freq+0x20>)
 8001934:	685b      	ldr	r3, [r3, #4]
 8001936:	0a1b      	lsrs	r3, r3, #8
 8001938:	f003 0307 	and.w	r3, r3, #7
 800193c:	4903      	ldr	r1, [pc, #12]	; (800194c <HAL_RCC_GetPCLK1Freq+0x24>)
 800193e:	5ccb      	ldrb	r3, [r1, r3]
 8001940:	fa22 f303 	lsr.w	r3, r2, r3
}
 8001944:	4618      	mov	r0, r3
 8001946:	bd80      	pop	{r7, pc}
 8001948:	40021000 	.word	0x40021000
 800194c:	08002720 	.word	0x08002720

08001950 <HAL_RCC_GetPCLK2Freq>:
  * @note   Each time PCLK2 changes, this function must be called to update the
  *         right PCLK2 value. Otherwise, any configuration based on this function will be incorrect.
  * @retval PCLK2 frequency
  */
uint32_t HAL_RCC_GetPCLK2Freq(void)
{
 8001950:	b580      	push	{r7, lr}
 8001952:	af00      	add	r7, sp, #0
  /* Get HCLK source and Compute PCLK2 frequency ---------------------------*/
  return (HAL_RCC_GetHCLKFreq() >> APBPrescTable[(RCC->CFGR & RCC_CFGR_PPRE2) >> RCC_CFGR_PPRE2_Pos]);
 8001954:	f7ff ffde 	bl	8001914 <HAL_RCC_GetHCLKFreq>
 8001958:	4602      	mov	r2, r0
 800195a:	4b05      	ldr	r3, [pc, #20]	; (8001970 <HAL_RCC_GetPCLK2Freq+0x20>)
 800195c:	685b      	ldr	r3, [r3, #4]
 800195e:	0adb      	lsrs	r3, r3, #11
 8001960:	f003 0307 	and.w	r3, r3, #7
 8001964:	4903      	ldr	r1, [pc, #12]	; (8001974 <HAL_RCC_GetPCLK2Freq+0x24>)
 8001966:	5ccb      	ldrb	r3, [r1, r3]
 8001968:	fa22 f303 	lsr.w	r3, r2, r3
}
 800196c:	4618      	mov	r0, r3
 800196e:	bd80      	pop	{r7, pc}
 8001970:	40021000 	.word	0x40021000
 8001974:	08002720 	.word	0x08002720

08001978 <RCC_Delay>:
  * @brief  This function provides delay (in milliseconds) based on CPU cycles method.
  * @param  mdelay: specifies the delay time length, in milliseconds.
  * @retval None
  */
static void RCC_Delay(uint32_t mdelay)
{
 8001978:	b480      	push	{r7}
 800197a:	b085      	sub	sp, #20
 800197c:	af00      	add	r7, sp, #0
 800197e:	6078      	str	r0, [r7, #4]
  __IO uint32_t Delay = mdelay * (SystemCoreClock / 8U / 1000U);
 8001980:	4b0a      	ldr	r3, [pc, #40]	; (80019ac <RCC_Delay+0x34>)
 8001982:	681b      	ldr	r3, [r3, #0]
 8001984:	4a0a      	ldr	r2, [pc, #40]	; (80019b0 <RCC_Delay+0x38>)
 8001986:	fba2 2303 	umull	r2, r3, r2, r3
 800198a:	0a5b      	lsrs	r3, r3, #9
 800198c:	687a      	ldr	r2, [r7, #4]
 800198e:	fb02 f303 	mul.w	r3, r2, r3
 8001992:	60fb      	str	r3, [r7, #12]
  do
  {
    __NOP();
 8001994:	bf00      	nop
  }
  while (Delay --);
 8001996:	68fb      	ldr	r3, [r7, #12]
 8001998:	1e5a      	subs	r2, r3, #1
 800199a:	60fa      	str	r2, [r7, #12]
 800199c:	2b00      	cmp	r3, #0
 800199e:	d1f9      	bne.n	8001994 <RCC_Delay+0x1c>
}
 80019a0:	bf00      	nop
 80019a2:	bf00      	nop
 80019a4:	3714      	adds	r7, #20
 80019a6:	46bd      	mov	sp, r7
 80019a8:	bc80      	pop	{r7}
 80019aa:	4770      	bx	lr
 80019ac:	20000000 	.word	0x20000000
 80019b0:	10624dd3 	.word	0x10624dd3

080019b4 <HAL_SPI_Init>:
  * @param  hspi pointer to a SPI_HandleTypeDef structure that contains
  *               the configuration information for SPI module.
  * @retval HAL status
  */
HAL_StatusTypeDef HAL_SPI_Init(SPI_HandleTypeDef *hspi)
{
 80019b4:	b580      	push	{r7, lr}
 80019b6:	b082      	sub	sp, #8
 80019b8:	af00      	add	r7, sp, #0
 80019ba:	6078      	str	r0, [r7, #4]
  /* Check the SPI handle allocation */
  if (hspi == NULL)
 80019bc:	687b      	ldr	r3, [r7, #4]
 80019be:	2b00      	cmp	r3, #0
 80019c0:	d101      	bne.n	80019c6 <HAL_SPI_Init+0x12>
  {
    return HAL_ERROR;
 80019c2:	2301      	movs	r3, #1
 80019c4:	e076      	b.n	8001ab4 <HAL_SPI_Init+0x100>
  assert_param(IS_SPI_BAUDRATE_PRESCALER(hspi->Init.BaudRatePrescaler));
  assert_param(IS_SPI_FIRST_BIT(hspi->Init.FirstBit));
  /* TI mode is not supported on this device.
     TIMode parameter is mandatory equal to SPI_TIMODE_DISABLE */
  assert_param(IS_SPI_TIMODE(hspi->Init.TIMode));
  if (hspi->Init.TIMode == SPI_TIMODE_DISABLE)
 80019c6:	687b      	ldr	r3, [r7, #4]
 80019c8:	6a5b      	ldr	r3, [r3, #36]	; 0x24
 80019ca:	2b00      	cmp	r3, #0
 80019cc:	d108      	bne.n	80019e0 <HAL_SPI_Init+0x2c>
  {
    assert_param(IS_SPI_CPOL(hspi->Init.CLKPolarity));
    assert_param(IS_SPI_CPHA(hspi->Init.CLKPhase));

    if (hspi->Init.Mode == SPI_MODE_MASTER)
 80019ce:	687b      	ldr	r3, [r7, #4]
 80019d0:	685b      	ldr	r3, [r3, #4]
 80019d2:	f5b3 7f82 	cmp.w	r3, #260	; 0x104
 80019d6:	d009      	beq.n	80019ec <HAL_SPI_Init+0x38>
      assert_param(IS_SPI_BAUDRATE_PRESCALER(hspi->Init.BaudRatePrescaler));
    }
    else
    {
      /* Baudrate prescaler not use in Motoraola Slave mode. force to default value */
      hspi->Init.BaudRatePrescaler = SPI_BAUDRATEPRESCALER_2;
 80019d8:	687b      	ldr	r3, [r7, #4]
 80019da:	2200      	movs	r2, #0
 80019dc:	61da      	str	r2, [r3, #28]
 80019de:	e005      	b.n	80019ec <HAL_SPI_Init+0x38>
  else
  {
    assert_param(IS_SPI_BAUDRATE_PRESCALER(hspi->Init.BaudRatePrescaler));

    /* Force polarity and phase to TI protocaol requirements */
    hspi->Init.CLKPolarity = SPI_POLARITY_LOW;
 80019e0:	687b      	ldr	r3, [r7, #4]
 80019e2:	2200      	movs	r2, #0
 80019e4:	611a      	str	r2, [r3, #16]
    hspi->Init.CLKPhase    = SPI_PHASE_1EDGE;
 80019e6:	687b      	ldr	r3, [r7, #4]
 80019e8:	2200      	movs	r2, #0
 80019ea:	615a      	str	r2, [r3, #20]
  if (hspi->Init.CRCCalculation == SPI_CRCCALCULATION_ENABLE)
  {
    assert_param(IS_SPI_CRC_POLYNOMIAL(hspi->Init.CRCPolynomial));
  }
#else
  hspi->Init.CRCCalculation = SPI_CRCCALCULATION_DISABLE;
 80019ec:	687b      	ldr	r3, [r7, #4]
 80019ee:	2200      	movs	r2, #0
 80019f0:	629a      	str	r2, [r3, #40]	; 0x28
#endif /* USE_SPI_CRC */

  if (hspi->State == HAL_SPI_STATE_RESET)
 80019f2:	687b      	ldr	r3, [r7, #4]
 80019f4:	f893 3051 	ldrb.w	r3, [r3, #81]	; 0x51
 80019f8:	b2db      	uxtb	r3, r3
 80019fa:	2b00      	cmp	r3, #0
 80019fc:	d106      	bne.n	8001a0c <HAL_SPI_Init+0x58>
  {
    /* Allocate lock resource and initialize it */
    hspi->Lock = HAL_UNLOCKED;
 80019fe:	687b      	ldr	r3, [r7, #4]
 8001a00:	2200      	movs	r2, #0
 8001a02:	f883 2050 	strb.w	r2, [r3, #80]	; 0x50

    /* Init the low level hardware : GPIO, CLOCK, NVIC... */
    hspi->MspInitCallback(hspi);
#else
    /* Init the low level hardware : GPIO, CLOCK, NVIC... */
    HAL_SPI_MspInit(hspi);
 8001a06:	6878      	ldr	r0, [r7, #4]
 8001a08:	f7fe ffdc 	bl	80009c4 <HAL_SPI_MspInit>
#endif /* USE_HAL_SPI_REGISTER_CALLBACKS */
  }

  hspi->State = HAL_SPI_STATE_BUSY;
 8001a0c:	687b      	ldr	r3, [r7, #4]
 8001a0e:	2202      	movs	r2, #2
 8001a10:	f883 2051 	strb.w	r2, [r3, #81]	; 0x51

  /* Disable the selected SPI peripheral */
  __HAL_SPI_DISABLE(hspi);
 8001a14:	687b      	ldr	r3, [r7, #4]
 8001a16:	681b      	ldr	r3, [r3, #0]
 8001a18:	681a      	ldr	r2, [r3, #0]
 8001a1a:	687b      	ldr	r3, [r7, #4]
 8001a1c:	681b      	ldr	r3, [r3, #0]
 8001a1e:	f022 0240 	bic.w	r2, r2, #64	; 0x40
 8001a22:	601a      	str	r2, [r3, #0]

  /*----------------------- SPIx CR1 & CR2 Configuration ---------------------*/
  /* Configure : SPI Mode, Communication Mode, Data size, Clock polarity and phase, NSS management,
  Communication speed, First bit and CRC calculation state */
  WRITE_REG(hspi->Instance->CR1, ((hspi->Init.Mode & (SPI_CR1_MSTR | SPI_CR1_SSI)) |
 8001a24:	687b      	ldr	r3, [r7, #4]
 8001a26:	685b      	ldr	r3, [r3, #4]
 8001a28:	f403 7282 	and.w	r2, r3, #260	; 0x104
 8001a2c:	687b      	ldr	r3, [r7, #4]
 8001a2e:	689b      	ldr	r3, [r3, #8]
 8001a30:	f403 4304 	and.w	r3, r3, #33792	; 0x8400
 8001a34:	431a      	orrs	r2, r3
 8001a36:	687b      	ldr	r3, [r7, #4]
 8001a38:	68db      	ldr	r3, [r3, #12]
 8001a3a:	f403 6300 	and.w	r3, r3, #2048	; 0x800
 8001a3e:	431a      	orrs	r2, r3
 8001a40:	687b      	ldr	r3, [r7, #4]
 8001a42:	691b      	ldr	r3, [r3, #16]
 8001a44:	f003 0302 	and.w	r3, r3, #2
 8001a48:	431a      	orrs	r2, r3
 8001a4a:	687b      	ldr	r3, [r7, #4]
 8001a4c:	695b      	ldr	r3, [r3, #20]
 8001a4e:	f003 0301 	and.w	r3, r3, #1
 8001a52:	431a      	orrs	r2, r3
 8001a54:	687b      	ldr	r3, [r7, #4]
 8001a56:	699b      	ldr	r3, [r3, #24]
 8001a58:	f403 7300 	and.w	r3, r3, #512	; 0x200
 8001a5c:	431a      	orrs	r2, r3
 8001a5e:	687b      	ldr	r3, [r7, #4]
 8001a60:	69db      	ldr	r3, [r3, #28]
 8001a62:	f003 0338 	and.w	r3, r3, #56	; 0x38
 8001a66:	431a      	orrs	r2, r3
 8001a68:	687b      	ldr	r3, [r7, #4]
 8001a6a:	6a1b      	ldr	r3, [r3, #32]
 8001a6c:	f003 0380 	and.w	r3, r3, #128	; 0x80
 8001a70:	ea42 0103 	orr.w	r1, r2, r3
 8001a74:	687b      	ldr	r3, [r7, #4]
 8001a76:	6a9b      	ldr	r3, [r3, #40]	; 0x28
 8001a78:	f403 5200 	and.w	r2, r3, #8192	; 0x2000
 8001a7c:	687b      	ldr	r3, [r7, #4]
 8001a7e:	681b      	ldr	r3, [r3, #0]
 8001a80:	430a      	orrs	r2, r1
 8001a82:	601a      	str	r2, [r3, #0]
                                  (hspi->Init.BaudRatePrescaler & SPI_CR1_BR_Msk) |
                                  (hspi->Init.FirstBit  & SPI_CR1_LSBFIRST) |
                                  (hspi->Init.CRCCalculation & SPI_CR1_CRCEN)));

  /* Configure : NSS management */
  WRITE_REG(hspi->Instance->CR2, ((hspi->Init.NSS >> 16U) & SPI_CR2_SSOE));
 8001a84:	687b      	ldr	r3, [r7, #4]
 8001a86:	699b      	ldr	r3, [r3, #24]
 8001a88:	0c1a      	lsrs	r2, r3, #16
 8001a8a:	687b      	ldr	r3, [r7, #4]
 8001a8c:	681b      	ldr	r3, [r3, #0]
 8001a8e:	f002 0204 	and.w	r2, r2, #4
 8001a92:	605a      	str	r2, [r3, #4]
  }
#endif /* USE_SPI_CRC */

#if defined(SPI_I2SCFGR_I2SMOD)
  /* Activate the SPI mode (Make sure that I2SMOD bit in I2SCFGR register is reset) */
  CLEAR_BIT(hspi->Instance->I2SCFGR, SPI_I2SCFGR_I2SMOD);
 8001a94:	687b      	ldr	r3, [r7, #4]
 8001a96:	681b      	ldr	r3, [r3, #0]
 8001a98:	69da      	ldr	r2, [r3, #28]
 8001a9a:	687b      	ldr	r3, [r7, #4]
 8001a9c:	681b      	ldr	r3, [r3, #0]
 8001a9e:	f422 6200 	bic.w	r2, r2, #2048	; 0x800
 8001aa2:	61da      	str	r2, [r3, #28]
#endif /* SPI_I2SCFGR_I2SMOD */

  hspi->ErrorCode = HAL_SPI_ERROR_NONE;
 8001aa4:	687b      	ldr	r3, [r7, #4]
 8001aa6:	2200      	movs	r2, #0
 8001aa8:	655a      	str	r2, [r3, #84]	; 0x54
  hspi->State     = HAL_SPI_STATE_READY;
 8001aaa:	687b      	ldr	r3, [r7, #4]
 8001aac:	2201      	movs	r2, #1
 8001aae:	f883 2051 	strb.w	r2, [r3, #81]	; 0x51

  return HAL_OK;
 8001ab2:	2300      	movs	r3, #0
}
 8001ab4:	4618      	mov	r0, r3
 8001ab6:	3708      	adds	r7, #8
 8001ab8:	46bd      	mov	sp, r7
 8001aba:	bd80      	pop	{r7, pc}

08001abc <HAL_SPI_Transmit>:
  * @param  Size amount of data to be sent
  * @param  Timeout Timeout duration
  * @retval HAL status
  */
HAL_StatusTypeDef HAL_SPI_Transmit(SPI_HandleTypeDef *hspi, uint8_t *pData, uint16_t Size, uint32_t Timeout)
{
 8001abc:	b580      	push	{r7, lr}
 8001abe:	b088      	sub	sp, #32
 8001ac0:	af00      	add	r7, sp, #0
 8001ac2:	60f8      	str	r0, [r7, #12]
 8001ac4:	60b9      	str	r1, [r7, #8]
 8001ac6:	603b      	str	r3, [r7, #0]
 8001ac8:	4613      	mov	r3, r2
 8001aca:	80fb      	strh	r3, [r7, #6]
  uint32_t tickstart;
  HAL_StatusTypeDef errorcode = HAL_OK;
 8001acc:	2300      	movs	r3, #0
 8001ace:	77fb      	strb	r3, [r7, #31]

  /* Check Direction parameter */
  assert_param(IS_SPI_DIRECTION_2LINES_OR_1LINE(hspi->Init.Direction));

  /* Process Locked */
  __HAL_LOCK(hspi);
 8001ad0:	68fb      	ldr	r3, [r7, #12]
 8001ad2:	f893 3050 	ldrb.w	r3, [r3, #80]	; 0x50
 8001ad6:	2b01      	cmp	r3, #1
 8001ad8:	d101      	bne.n	8001ade <HAL_SPI_Transmit+0x22>
 8001ada:	2302      	movs	r3, #2
 8001adc:	e12d      	b.n	8001d3a <HAL_SPI_Transmit+0x27e>
 8001ade:	68fb      	ldr	r3, [r7, #12]
 8001ae0:	2201      	movs	r2, #1
 8001ae2:	f883 2050 	strb.w	r2, [r3, #80]	; 0x50

  /* Init tickstart for timeout management*/
  tickstart = HAL_GetTick();
 8001ae6:	f7ff f8af 	bl	8000c48 <HAL_GetTick>
 8001aea:	61b8      	str	r0, [r7, #24]
  initial_TxXferCount = Size;
 8001aec:	88fb      	ldrh	r3, [r7, #6]
 8001aee:	82fb      	strh	r3, [r7, #22]

  if (hspi->State != HAL_SPI_STATE_READY)
 8001af0:	68fb      	ldr	r3, [r7, #12]
 8001af2:	f893 3051 	ldrb.w	r3, [r3, #81]	; 0x51
 8001af6:	b2db      	uxtb	r3, r3
 8001af8:	2b01      	cmp	r3, #1
 8001afa:	d002      	beq.n	8001b02 <HAL_SPI_Transmit+0x46>
  {
    errorcode = HAL_BUSY;
 8001afc:	2302      	movs	r3, #2
 8001afe:	77fb      	strb	r3, [r7, #31]
    goto error;
 8001b00:	e116      	b.n	8001d30 <HAL_SPI_Transmit+0x274>
  }

  if ((pData == NULL) || (Size == 0U))
 8001b02:	68bb      	ldr	r3, [r7, #8]
 8001b04:	2b00      	cmp	r3, #0
 8001b06:	d002      	beq.n	8001b0e <HAL_SPI_Transmit+0x52>
 8001b08:	88fb      	ldrh	r3, [r7, #6]
 8001b0a:	2b00      	cmp	r3, #0
 8001b0c:	d102      	bne.n	8001b14 <HAL_SPI_Transmit+0x58>
  {
    errorcode = HAL_ERROR;
 8001b0e:	2301      	movs	r3, #1
 8001b10:	77fb      	strb	r3, [r7, #31]
    goto error;
 8001b12:	e10d      	b.n	8001d30 <HAL_SPI_Transmit+0x274>
  }

  /* Set the transaction information */
  hspi->State       = HAL_SPI_STATE_BUSY_TX;
 8001b14:	68fb      	ldr	r3, [r7, #12]
 8001b16:	2203      	movs	r2, #3
 8001b18:	f883 2051 	strb.w	r2, [r3, #81]	; 0x51
  hspi->ErrorCode   = HAL_SPI_ERROR_NONE;
 8001b1c:	68fb      	ldr	r3, [r7, #12]
 8001b1e:	2200      	movs	r2, #0
 8001b20:	655a      	str	r2, [r3, #84]	; 0x54
  hspi->pTxBuffPtr  = (uint8_t *)pData;
 8001b22:	68fb      	ldr	r3, [r7, #12]
 8001b24:	68ba      	ldr	r2, [r7, #8]
 8001b26:	631a      	str	r2, [r3, #48]	; 0x30
  hspi->TxXferSize  = Size;
 8001b28:	68fb      	ldr	r3, [r7, #12]
 8001b2a:	88fa      	ldrh	r2, [r7, #6]
 8001b2c:	869a      	strh	r2, [r3, #52]	; 0x34
  hspi->TxXferCount = Size;
 8001b2e:	68fb      	ldr	r3, [r7, #12]
 8001b30:	88fa      	ldrh	r2, [r7, #6]
 8001b32:	86da      	strh	r2, [r3, #54]	; 0x36

  /*Init field not used in handle to zero */
  hspi->pRxBuffPtr  = (uint8_t *)NULL;
 8001b34:	68fb      	ldr	r3, [r7, #12]
 8001b36:	2200      	movs	r2, #0
 8001b38:	639a      	str	r2, [r3, #56]	; 0x38
  hspi->RxXferSize  = 0U;
 8001b3a:	68fb      	ldr	r3, [r7, #12]
 8001b3c:	2200      	movs	r2, #0
 8001b3e:	879a      	strh	r2, [r3, #60]	; 0x3c
  hspi->RxXferCount = 0U;
 8001b40:	68fb      	ldr	r3, [r7, #12]
 8001b42:	2200      	movs	r2, #0
 8001b44:	87da      	strh	r2, [r3, #62]	; 0x3e
  hspi->TxISR       = NULL;
 8001b46:	68fb      	ldr	r3, [r7, #12]
 8001b48:	2200      	movs	r2, #0
 8001b4a:	645a      	str	r2, [r3, #68]	; 0x44
  hspi->RxISR       = NULL;
 8001b4c:	68fb      	ldr	r3, [r7, #12]
 8001b4e:	2200      	movs	r2, #0
 8001b50:	641a      	str	r2, [r3, #64]	; 0x40

  /* Configure communication direction : 1Line */
  if (hspi->Init.Direction == SPI_DIRECTION_1LINE)
 8001b52:	68fb      	ldr	r3, [r7, #12]
 8001b54:	689b      	ldr	r3, [r3, #8]
 8001b56:	f5b3 4f00 	cmp.w	r3, #32768	; 0x8000
 8001b5a:	d10f      	bne.n	8001b7c <HAL_SPI_Transmit+0xc0>
  {
    /* Disable SPI Peripheral before set 1Line direction (BIDIOE bit) */
    __HAL_SPI_DISABLE(hspi);
 8001b5c:	68fb      	ldr	r3, [r7, #12]
 8001b5e:	681b      	ldr	r3, [r3, #0]
 8001b60:	681a      	ldr	r2, [r3, #0]
 8001b62:	68fb      	ldr	r3, [r7, #12]
 8001b64:	681b      	ldr	r3, [r3, #0]
 8001b66:	f022 0240 	bic.w	r2, r2, #64	; 0x40
 8001b6a:	601a      	str	r2, [r3, #0]
    SPI_1LINE_TX(hspi);
 8001b6c:	68fb      	ldr	r3, [r7, #12]
 8001b6e:	681b      	ldr	r3, [r3, #0]
 8001b70:	681a      	ldr	r2, [r3, #0]
 8001b72:	68fb      	ldr	r3, [r7, #12]
 8001b74:	681b      	ldr	r3, [r3, #0]
 8001b76:	f442 4280 	orr.w	r2, r2, #16384	; 0x4000
 8001b7a:	601a      	str	r2, [r3, #0]
    SPI_RESET_CRC(hspi);
  }
#endif /* USE_SPI_CRC */

  /* Check if the SPI is already enabled */
  if ((hspi->Instance->CR1 & SPI_CR1_SPE) != SPI_CR1_SPE)
 8001b7c:	68fb      	ldr	r3, [r7, #12]
 8001b7e:	681b      	ldr	r3, [r3, #0]
 8001b80:	681b      	ldr	r3, [r3, #0]
 8001b82:	f003 0340 	and.w	r3, r3, #64	; 0x40
 8001b86:	2b40      	cmp	r3, #64	; 0x40
 8001b88:	d007      	beq.n	8001b9a <HAL_SPI_Transmit+0xde>
  {
    /* Enable SPI peripheral */
    __HAL_SPI_ENABLE(hspi);
 8001b8a:	68fb      	ldr	r3, [r7, #12]
 8001b8c:	681b      	ldr	r3, [r3, #0]
 8001b8e:	681a      	ldr	r2, [r3, #0]
 8001b90:	68fb      	ldr	r3, [r7, #12]
 8001b92:	681b      	ldr	r3, [r3, #0]
 8001b94:	f042 0240 	orr.w	r2, r2, #64	; 0x40
 8001b98:	601a      	str	r2, [r3, #0]
  }

  /* Transmit data in 16 Bit mode */
  if (hspi->Init.DataSize == SPI_DATASIZE_16BIT)
 8001b9a:	68fb      	ldr	r3, [r7, #12]
 8001b9c:	68db      	ldr	r3, [r3, #12]
 8001b9e:	f5b3 6f00 	cmp.w	r3, #2048	; 0x800
 8001ba2:	d14f      	bne.n	8001c44 <HAL_SPI_Transmit+0x188>
  {
    if ((hspi->Init.Mode == SPI_MODE_SLAVE) || (initial_TxXferCount == 0x01U))
 8001ba4:	68fb      	ldr	r3, [r7, #12]
 8001ba6:	685b      	ldr	r3, [r3, #4]
 8001ba8:	2b00      	cmp	r3, #0
 8001baa:	d002      	beq.n	8001bb2 <HAL_SPI_Transmit+0xf6>
 8001bac:	8afb      	ldrh	r3, [r7, #22]
 8001bae:	2b01      	cmp	r3, #1
 8001bb0:	d142      	bne.n	8001c38 <HAL_SPI_Transmit+0x17c>
    {
      hspi->Instance->DR = *((uint16_t *)hspi->pTxBuffPtr);
 8001bb2:	68fb      	ldr	r3, [r7, #12]
 8001bb4:	6b1b      	ldr	r3, [r3, #48]	; 0x30
 8001bb6:	881a      	ldrh	r2, [r3, #0]
 8001bb8:	68fb      	ldr	r3, [r7, #12]
 8001bba:	681b      	ldr	r3, [r3, #0]
 8001bbc:	60da      	str	r2, [r3, #12]
      hspi->pTxBuffPtr += sizeof(uint16_t);
 8001bbe:	68fb      	ldr	r3, [r7, #12]
 8001bc0:	6b1b      	ldr	r3, [r3, #48]	; 0x30
 8001bc2:	1c9a      	adds	r2, r3, #2
 8001bc4:	68fb      	ldr	r3, [r7, #12]
 8001bc6:	631a      	str	r2, [r3, #48]	; 0x30
      hspi->TxXferCount--;
 8001bc8:	68fb      	ldr	r3, [r7, #12]
 8001bca:	8edb      	ldrh	r3, [r3, #54]	; 0x36
 8001bcc:	b29b      	uxth	r3, r3
 8001bce:	3b01      	subs	r3, #1
 8001bd0:	b29a      	uxth	r2, r3
 8001bd2:	68fb      	ldr	r3, [r7, #12]
 8001bd4:	86da      	strh	r2, [r3, #54]	; 0x36
    }
    /* Transmit data in 16 Bit mode */
    while (hspi->TxXferCount > 0U)
 8001bd6:	e02f      	b.n	8001c38 <HAL_SPI_Transmit+0x17c>
    {
      /* Wait until TXE flag is set to send data */
      if (__HAL_SPI_GET_FLAG(hspi, SPI_FLAG_TXE))
 8001bd8:	68fb      	ldr	r3, [r7, #12]
 8001bda:	681b      	ldr	r3, [r3, #0]
 8001bdc:	689b      	ldr	r3, [r3, #8]
 8001bde:	f003 0302 	and.w	r3, r3, #2
 8001be2:	2b02      	cmp	r3, #2
 8001be4:	d112      	bne.n	8001c0c <HAL_SPI_Transmit+0x150>
      {
        hspi->Instance->DR = *((uint16_t *)hspi->pTxBuffPtr);
 8001be6:	68fb      	ldr	r3, [r7, #12]
 8001be8:	6b1b      	ldr	r3, [r3, #48]	; 0x30
 8001bea:	881a      	ldrh	r2, [r3, #0]
 8001bec:	68fb      	ldr	r3, [r7, #12]
 8001bee:	681b      	ldr	r3, [r3, #0]
 8001bf0:	60da      	str	r2, [r3, #12]
        hspi->pTxBuffPtr += sizeof(uint16_t);
 8001bf2:	68fb      	ldr	r3, [r7, #12]
 8001bf4:	6b1b      	ldr	r3, [r3, #48]	; 0x30
 8001bf6:	1c9a      	adds	r2, r3, #2
 8001bf8:	68fb      	ldr	r3, [r7, #12]
 8001bfa:	631a      	str	r2, [r3, #48]	; 0x30
        hspi->TxXferCount--;
 8001bfc:	68fb      	ldr	r3, [r7, #12]
 8001bfe:	8edb      	ldrh	r3, [r3, #54]	; 0x36
 8001c00:	b29b      	uxth	r3, r3
 8001c02:	3b01      	subs	r3, #1
 8001c04:	b29a      	uxth	r2, r3
 8001c06:	68fb      	ldr	r3, [r7, #12]
 8001c08:	86da      	strh	r2, [r3, #54]	; 0x36
 8001c0a:	e015      	b.n	8001c38 <HAL_SPI_Transmit+0x17c>
      }
      else
      {
        /* Timeout management */
        if ((((HAL_GetTick() - tickstart) >=  Timeout) && (Timeout != HAL_MAX_DELAY)) || (Timeout == 0U))
 8001c0c:	f7ff f81c 	bl	8000c48 <HAL_GetTick>
 8001c10:	4602      	mov	r2, r0
 8001c12:	69bb      	ldr	r3, [r7, #24]
 8001c14:	1ad3      	subs	r3, r2, r3
 8001c16:	683a      	ldr	r2, [r7, #0]
 8001c18:	429a      	cmp	r2, r3
 8001c1a:	d803      	bhi.n	8001c24 <HAL_SPI_Transmit+0x168>
 8001c1c:	683b      	ldr	r3, [r7, #0]
 8001c1e:	f1b3 3fff 	cmp.w	r3, #4294967295
 8001c22:	d102      	bne.n	8001c2a <HAL_SPI_Transmit+0x16e>
 8001c24:	683b      	ldr	r3, [r7, #0]
 8001c26:	2b00      	cmp	r3, #0
 8001c28:	d106      	bne.n	8001c38 <HAL_SPI_Transmit+0x17c>
        {
          errorcode = HAL_TIMEOUT;
 8001c2a:	2303      	movs	r3, #3
 8001c2c:	77fb      	strb	r3, [r7, #31]
          hspi->State = HAL_SPI_STATE_READY;
 8001c2e:	68fb      	ldr	r3, [r7, #12]
 8001c30:	2201      	movs	r2, #1
 8001c32:	f883 2051 	strb.w	r2, [r3, #81]	; 0x51
          goto error;
 8001c36:	e07b      	b.n	8001d30 <HAL_SPI_Transmit+0x274>
    while (hspi->TxXferCount > 0U)
 8001c38:	68fb      	ldr	r3, [r7, #12]
 8001c3a:	8edb      	ldrh	r3, [r3, #54]	; 0x36
 8001c3c:	b29b      	uxth	r3, r3
 8001c3e:	2b00      	cmp	r3, #0
 8001c40:	d1ca      	bne.n	8001bd8 <HAL_SPI_Transmit+0x11c>
 8001c42:	e050      	b.n	8001ce6 <HAL_SPI_Transmit+0x22a>
    }
  }
  /* Transmit data in 8 Bit mode */
  else
  {
    if ((hspi->Init.Mode == SPI_MODE_SLAVE) || (initial_TxXferCount == 0x01U))
 8001c44:	68fb      	ldr	r3, [r7, #12]
 8001c46:	685b      	ldr	r3, [r3, #4]
 8001c48:	2b00      	cmp	r3, #0
 8001c4a:	d002      	beq.n	8001c52 <HAL_SPI_Transmit+0x196>
 8001c4c:	8afb      	ldrh	r3, [r7, #22]
 8001c4e:	2b01      	cmp	r3, #1
 8001c50:	d144      	bne.n	8001cdc <HAL_SPI_Transmit+0x220>
    {
      *((__IO uint8_t *)&hspi->Instance->DR) = (*hspi->pTxBuffPtr);
 8001c52:	68fb      	ldr	r3, [r7, #12]
 8001c54:	6b1a      	ldr	r2, [r3, #48]	; 0x30
 8001c56:	68fb      	ldr	r3, [r7, #12]
 8001c58:	681b      	ldr	r3, [r3, #0]
 8001c5a:	330c      	adds	r3, #12
 8001c5c:	7812      	ldrb	r2, [r2, #0]
 8001c5e:	701a      	strb	r2, [r3, #0]
      hspi->pTxBuffPtr += sizeof(uint8_t);
 8001c60:	68fb      	ldr	r3, [r7, #12]
 8001c62:	6b1b      	ldr	r3, [r3, #48]	; 0x30
 8001c64:	1c5a      	adds	r2, r3, #1
 8001c66:	68fb      	ldr	r3, [r7, #12]
 8001c68:	631a      	str	r2, [r3, #48]	; 0x30
      hspi->TxXferCount--;
 8001c6a:	68fb      	ldr	r3, [r7, #12]
 8001c6c:	8edb      	ldrh	r3, [r3, #54]	; 0x36
 8001c6e:	b29b      	uxth	r3, r3
 8001c70:	3b01      	subs	r3, #1
 8001c72:	b29a      	uxth	r2, r3
 8001c74:	68fb      	ldr	r3, [r7, #12]
 8001c76:	86da      	strh	r2, [r3, #54]	; 0x36
    }
    while (hspi->TxXferCount > 0U)
 8001c78:	e030      	b.n	8001cdc <HAL_SPI_Transmit+0x220>
    {
      /* Wait until TXE flag is set to send data */
      if (__HAL_SPI_GET_FLAG(hspi, SPI_FLAG_TXE))
 8001c7a:	68fb      	ldr	r3, [r7, #12]
 8001c7c:	681b      	ldr	r3, [r3, #0]
 8001c7e:	689b      	ldr	r3, [r3, #8]
 8001c80:	f003 0302 	and.w	r3, r3, #2
 8001c84:	2b02      	cmp	r3, #2
 8001c86:	d113      	bne.n	8001cb0 <HAL_SPI_Transmit+0x1f4>
      {
        *((__IO uint8_t *)&hspi->Instance->DR) = (*hspi->pTxBuffPtr);
 8001c88:	68fb      	ldr	r3, [r7, #12]
 8001c8a:	6b1a      	ldr	r2, [r3, #48]	; 0x30
 8001c8c:	68fb      	ldr	r3, [r7, #12]
 8001c8e:	681b      	ldr	r3, [r3, #0]
 8001c90:	330c      	adds	r3, #12
 8001c92:	7812      	ldrb	r2, [r2, #0]
 8001c94:	701a      	strb	r2, [r3, #0]
        hspi->pTxBuffPtr += sizeof(uint8_t);
 8001c96:	68fb      	ldr	r3, [r7, #12]
 8001c98:	6b1b      	ldr	r3, [r3, #48]	; 0x30
 8001c9a:	1c5a      	adds	r2, r3, #1
 8001c9c:	68fb      	ldr	r3, [r7, #12]
 8001c9e:	631a      	str	r2, [r3, #48]	; 0x30
        hspi->TxXferCount--;
 8001ca0:	68fb      	ldr	r3, [r7, #12]
 8001ca2:	8edb      	ldrh	r3, [r3, #54]	; 0x36
 8001ca4:	b29b      	uxth	r3, r3
 8001ca6:	3b01      	subs	r3, #1
 8001ca8:	b29a      	uxth	r2, r3
 8001caa:	68fb      	ldr	r3, [r7, #12]
 8001cac:	86da      	strh	r2, [r3, #54]	; 0x36
 8001cae:	e015      	b.n	8001cdc <HAL_SPI_Transmit+0x220>
      }
      else
      {
        /* Timeout management */
        if ((((HAL_GetTick() - tickstart) >=  Timeout) && (Timeout != HAL_MAX_DELAY)) || (Timeout == 0U))
 8001cb0:	f7fe ffca 	bl	8000c48 <HAL_GetTick>
 8001cb4:	4602      	mov	r2, r0
 8001cb6:	69bb      	ldr	r3, [r7, #24]
 8001cb8:	1ad3      	subs	r3, r2, r3
 8001cba:	683a      	ldr	r2, [r7, #0]
 8001cbc:	429a      	cmp	r2, r3
 8001cbe:	d803      	bhi.n	8001cc8 <HAL_SPI_Transmit+0x20c>
 8001cc0:	683b      	ldr	r3, [r7, #0]
 8001cc2:	f1b3 3fff 	cmp.w	r3, #4294967295
 8001cc6:	d102      	bne.n	8001cce <HAL_SPI_Transmit+0x212>
 8001cc8:	683b      	ldr	r3, [r7, #0]
 8001cca:	2b00      	cmp	r3, #0
 8001ccc:	d106      	bne.n	8001cdc <HAL_SPI_Transmit+0x220>
        {
          errorcode = HAL_TIMEOUT;
 8001cce:	2303      	movs	r3, #3
 8001cd0:	77fb      	strb	r3, [r7, #31]
          hspi->State = HAL_SPI_STATE_READY;
 8001cd2:	68fb      	ldr	r3, [r7, #12]
 8001cd4:	2201      	movs	r2, #1
 8001cd6:	f883 2051 	strb.w	r2, [r3, #81]	; 0x51
          goto error;
 8001cda:	e029      	b.n	8001d30 <HAL_SPI_Transmit+0x274>
    while (hspi->TxXferCount > 0U)
 8001cdc:	68fb      	ldr	r3, [r7, #12]
 8001cde:	8edb      	ldrh	r3, [r3, #54]	; 0x36
 8001ce0:	b29b      	uxth	r3, r3
 8001ce2:	2b00      	cmp	r3, #0
 8001ce4:	d1c9      	bne.n	8001c7a <HAL_SPI_Transmit+0x1be>
    SET_BIT(hspi->Instance->CR1, SPI_CR1_CRCNEXT);
  }
#endif /* USE_SPI_CRC */

  /* Check the end of the transaction */
  if (SPI_EndRxTxTransaction(hspi, Timeout, tickstart) != HAL_OK)
 8001ce6:	69ba      	ldr	r2, [r7, #24]
 8001ce8:	6839      	ldr	r1, [r7, #0]
 8001cea:	68f8      	ldr	r0, [r7, #12]
 8001cec:	f000 fbd8 	bl	80024a0 <SPI_EndRxTxTransaction>
 8001cf0:	4603      	mov	r3, r0
 8001cf2:	2b00      	cmp	r3, #0
 8001cf4:	d002      	beq.n	8001cfc <HAL_SPI_Transmit+0x240>
  {
    hspi->ErrorCode = HAL_SPI_ERROR_FLAG;
 8001cf6:	68fb      	ldr	r3, [r7, #12]
 8001cf8:	2220      	movs	r2, #32
 8001cfa:	655a      	str	r2, [r3, #84]	; 0x54
  }

  /* Clear overrun flag in 2 Lines communication mode because received is not read */
  if (hspi->Init.Direction == SPI_DIRECTION_2LINES)
 8001cfc:	68fb      	ldr	r3, [r7, #12]
 8001cfe:	689b      	ldr	r3, [r3, #8]
 8001d00:	2b00      	cmp	r3, #0
 8001d02:	d10a      	bne.n	8001d1a <HAL_SPI_Transmit+0x25e>
  {
    __HAL_SPI_CLEAR_OVRFLAG(hspi);
 8001d04:	2300      	movs	r3, #0
 8001d06:	613b      	str	r3, [r7, #16]
 8001d08:	68fb      	ldr	r3, [r7, #12]
 8001d0a:	681b      	ldr	r3, [r3, #0]
 8001d0c:	68db      	ldr	r3, [r3, #12]
 8001d0e:	613b      	str	r3, [r7, #16]
 8001d10:	68fb      	ldr	r3, [r7, #12]
 8001d12:	681b      	ldr	r3, [r3, #0]
 8001d14:	689b      	ldr	r3, [r3, #8]
 8001d16:	613b      	str	r3, [r7, #16]
 8001d18:	693b      	ldr	r3, [r7, #16]
  }

  if (hspi->ErrorCode != HAL_SPI_ERROR_NONE)
 8001d1a:	68fb      	ldr	r3, [r7, #12]
 8001d1c:	6d5b      	ldr	r3, [r3, #84]	; 0x54
 8001d1e:	2b00      	cmp	r3, #0
 8001d20:	d002      	beq.n	8001d28 <HAL_SPI_Transmit+0x26c>
  {
    errorcode = HAL_ERROR;
 8001d22:	2301      	movs	r3, #1
 8001d24:	77fb      	strb	r3, [r7, #31]
 8001d26:	e003      	b.n	8001d30 <HAL_SPI_Transmit+0x274>
  }
  else
  {
    hspi->State = HAL_SPI_STATE_READY;
 8001d28:	68fb      	ldr	r3, [r7, #12]
 8001d2a:	2201      	movs	r2, #1
 8001d2c:	f883 2051 	strb.w	r2, [r3, #81]	; 0x51
  }

error:
  /* Process Unlocked */
  __HAL_UNLOCK(hspi);
 8001d30:	68fb      	ldr	r3, [r7, #12]
 8001d32:	2200      	movs	r2, #0
 8001d34:	f883 2050 	strb.w	r2, [r3, #80]	; 0x50
  return errorcode;
 8001d38:	7ffb      	ldrb	r3, [r7, #31]
}
 8001d3a:	4618      	mov	r0, r3
 8001d3c:	3720      	adds	r7, #32
 8001d3e:	46bd      	mov	sp, r7
 8001d40:	bd80      	pop	{r7, pc}

08001d42 <HAL_SPI_Receive>:
  * @param  Size amount of data to be received
  * @param  Timeout Timeout duration
  * @retval HAL status
  */
HAL_StatusTypeDef HAL_SPI_Receive(SPI_HandleTypeDef *hspi, uint8_t *pData, uint16_t Size, uint32_t Timeout)
{
 8001d42:	b580      	push	{r7, lr}
 8001d44:	b088      	sub	sp, #32
 8001d46:	af02      	add	r7, sp, #8
 8001d48:	60f8      	str	r0, [r7, #12]
 8001d4a:	60b9      	str	r1, [r7, #8]
 8001d4c:	603b      	str	r3, [r7, #0]
 8001d4e:	4613      	mov	r3, r2
 8001d50:	80fb      	strh	r3, [r7, #6]
#if (USE_SPI_CRC != 0U)
  __IO uint32_t tmpreg = 0U;
#endif /* USE_SPI_CRC */
  uint32_t tickstart;
  HAL_StatusTypeDef errorcode = HAL_OK;
 8001d52:	2300      	movs	r3, #0
 8001d54:	75fb      	strb	r3, [r7, #23]

  if (hspi->State != HAL_SPI_STATE_READY)
 8001d56:	68fb      	ldr	r3, [r7, #12]
 8001d58:	f893 3051 	ldrb.w	r3, [r3, #81]	; 0x51
 8001d5c:	b2db      	uxtb	r3, r3
 8001d5e:	2b01      	cmp	r3, #1
 8001d60:	d002      	beq.n	8001d68 <HAL_SPI_Receive+0x26>
  {
    errorcode = HAL_BUSY;
 8001d62:	2302      	movs	r3, #2
 8001d64:	75fb      	strb	r3, [r7, #23]
    goto error;
 8001d66:	e0fb      	b.n	8001f60 <HAL_SPI_Receive+0x21e>
  }

  if ((hspi->Init.Mode == SPI_MODE_MASTER) && (hspi->Init.Direction == SPI_DIRECTION_2LINES))
 8001d68:	68fb      	ldr	r3, [r7, #12]
 8001d6a:	685b      	ldr	r3, [r3, #4]
 8001d6c:	f5b3 7f82 	cmp.w	r3, #260	; 0x104
 8001d70:	d112      	bne.n	8001d98 <HAL_SPI_Receive+0x56>
 8001d72:	68fb      	ldr	r3, [r7, #12]
 8001d74:	689b      	ldr	r3, [r3, #8]
 8001d76:	2b00      	cmp	r3, #0
 8001d78:	d10e      	bne.n	8001d98 <HAL_SPI_Receive+0x56>
  {
    hspi->State = HAL_SPI_STATE_BUSY_RX;
 8001d7a:	68fb      	ldr	r3, [r7, #12]
 8001d7c:	2204      	movs	r2, #4
 8001d7e:	f883 2051 	strb.w	r2, [r3, #81]	; 0x51
    /* Call transmit-receive function to send Dummy data on Tx line and generate clock on CLK line */
    return HAL_SPI_TransmitReceive(hspi, pData, pData, Size, Timeout);
 8001d82:	88fa      	ldrh	r2, [r7, #6]
 8001d84:	683b      	ldr	r3, [r7, #0]
 8001d86:	9300      	str	r3, [sp, #0]
 8001d88:	4613      	mov	r3, r2
 8001d8a:	68ba      	ldr	r2, [r7, #8]
 8001d8c:	68b9      	ldr	r1, [r7, #8]
 8001d8e:	68f8      	ldr	r0, [r7, #12]
 8001d90:	f000 f8ef 	bl	8001f72 <HAL_SPI_TransmitReceive>
 8001d94:	4603      	mov	r3, r0
 8001d96:	e0e8      	b.n	8001f6a <HAL_SPI_Receive+0x228>
  }

  /* Process Locked */
  __HAL_LOCK(hspi);
 8001d98:	68fb      	ldr	r3, [r7, #12]
 8001d9a:	f893 3050 	ldrb.w	r3, [r3, #80]	; 0x50
 8001d9e:	2b01      	cmp	r3, #1
 8001da0:	d101      	bne.n	8001da6 <HAL_SPI_Receive+0x64>
 8001da2:	2302      	movs	r3, #2
 8001da4:	e0e1      	b.n	8001f6a <HAL_SPI_Receive+0x228>
 8001da6:	68fb      	ldr	r3, [r7, #12]
 8001da8:	2201      	movs	r2, #1
 8001daa:	f883 2050 	strb.w	r2, [r3, #80]	; 0x50

  /* Init tickstart for timeout management*/
  tickstart = HAL_GetTick();
 8001dae:	f7fe ff4b 	bl	8000c48 <HAL_GetTick>
 8001db2:	6138      	str	r0, [r7, #16]

  if ((pData == NULL) || (Size == 0U))
 8001db4:	68bb      	ldr	r3, [r7, #8]
 8001db6:	2b00      	cmp	r3, #0
 8001db8:	d002      	beq.n	8001dc0 <HAL_SPI_Receive+0x7e>
 8001dba:	88fb      	ldrh	r3, [r7, #6]
 8001dbc:	2b00      	cmp	r3, #0
 8001dbe:	d102      	bne.n	8001dc6 <HAL_SPI_Receive+0x84>
  {
    errorcode = HAL_ERROR;
 8001dc0:	2301      	movs	r3, #1
 8001dc2:	75fb      	strb	r3, [r7, #23]
    goto error;
 8001dc4:	e0cc      	b.n	8001f60 <HAL_SPI_Receive+0x21e>
  }

  /* Set the transaction information */
  hspi->State       = HAL_SPI_STATE_BUSY_RX;
 8001dc6:	68fb      	ldr	r3, [r7, #12]
 8001dc8:	2204      	movs	r2, #4
 8001dca:	f883 2051 	strb.w	r2, [r3, #81]	; 0x51
  hspi->ErrorCode   = HAL_SPI_ERROR_NONE;
 8001dce:	68fb      	ldr	r3, [r7, #12]
 8001dd0:	2200      	movs	r2, #0
 8001dd2:	655a      	str	r2, [r3, #84]	; 0x54
  hspi->pRxBuffPtr  = (uint8_t *)pData;
 8001dd4:	68fb      	ldr	r3, [r7, #12]
 8001dd6:	68ba      	ldr	r2, [r7, #8]
 8001dd8:	639a      	str	r2, [r3, #56]	; 0x38
  hspi->RxXferSize  = Size;
 8001dda:	68fb      	ldr	r3, [r7, #12]
 8001ddc:	88fa      	ldrh	r2, [r7, #6]
 8001dde:	879a      	strh	r2, [r3, #60]	; 0x3c
  hspi->RxXferCount = Size;
 8001de0:	68fb      	ldr	r3, [r7, #12]
 8001de2:	88fa      	ldrh	r2, [r7, #6]
 8001de4:	87da      	strh	r2, [r3, #62]	; 0x3e

  /*Init field not used in handle to zero */
  hspi->pTxBuffPtr  = (uint8_t *)NULL;
 8001de6:	68fb      	ldr	r3, [r7, #12]
 8001de8:	2200      	movs	r2, #0
 8001dea:	631a      	str	r2, [r3, #48]	; 0x30
  hspi->TxXferSize  = 0U;
 8001dec:	68fb      	ldr	r3, [r7, #12]
 8001dee:	2200      	movs	r2, #0
 8001df0:	869a      	strh	r2, [r3, #52]	; 0x34
  hspi->TxXferCount = 0U;
 8001df2:	68fb      	ldr	r3, [r7, #12]
 8001df4:	2200      	movs	r2, #0
 8001df6:	86da      	strh	r2, [r3, #54]	; 0x36
  hspi->RxISR       = NULL;
 8001df8:	68fb      	ldr	r3, [r7, #12]
 8001dfa:	2200      	movs	r2, #0
 8001dfc:	641a      	str	r2, [r3, #64]	; 0x40
  hspi->TxISR       = NULL;
 8001dfe:	68fb      	ldr	r3, [r7, #12]
 8001e00:	2200      	movs	r2, #0
 8001e02:	645a      	str	r2, [r3, #68]	; 0x44
    hspi->RxXferCount--;
  }
#endif /* USE_SPI_CRC */

  /* Configure communication direction: 1Line */
  if (hspi->Init.Direction == SPI_DIRECTION_1LINE)
 8001e04:	68fb      	ldr	r3, [r7, #12]
 8001e06:	689b      	ldr	r3, [r3, #8]
 8001e08:	f5b3 4f00 	cmp.w	r3, #32768	; 0x8000
 8001e0c:	d10f      	bne.n	8001e2e <HAL_SPI_Receive+0xec>
  {
    /* Disable SPI Peripheral before set 1Line direction (BIDIOE bit) */
    __HAL_SPI_DISABLE(hspi);
 8001e0e:	68fb      	ldr	r3, [r7, #12]
 8001e10:	681b      	ldr	r3, [r3, #0]
 8001e12:	681a      	ldr	r2, [r3, #0]
 8001e14:	68fb      	ldr	r3, [r7, #12]
 8001e16:	681b      	ldr	r3, [r3, #0]
 8001e18:	f022 0240 	bic.w	r2, r2, #64	; 0x40
 8001e1c:	601a      	str	r2, [r3, #0]
    SPI_1LINE_RX(hspi);
 8001e1e:	68fb      	ldr	r3, [r7, #12]
 8001e20:	681b      	ldr	r3, [r3, #0]
 8001e22:	681a      	ldr	r2, [r3, #0]
 8001e24:	68fb      	ldr	r3, [r7, #12]
 8001e26:	681b      	ldr	r3, [r3, #0]
 8001e28:	f422 4280 	bic.w	r2, r2, #16384	; 0x4000
 8001e2c:	601a      	str	r2, [r3, #0]
  }

  /* Check if the SPI is already enabled */
  if ((hspi->Instance->CR1 & SPI_CR1_SPE) != SPI_CR1_SPE)
 8001e2e:	68fb      	ldr	r3, [r7, #12]
 8001e30:	681b      	ldr	r3, [r3, #0]
 8001e32:	681b      	ldr	r3, [r3, #0]
 8001e34:	f003 0340 	and.w	r3, r3, #64	; 0x40
 8001e38:	2b40      	cmp	r3, #64	; 0x40
 8001e3a:	d007      	beq.n	8001e4c <HAL_SPI_Receive+0x10a>
  {
    /* Enable SPI peripheral */
    __HAL_SPI_ENABLE(hspi);
 8001e3c:	68fb      	ldr	r3, [r7, #12]
 8001e3e:	681b      	ldr	r3, [r3, #0]
 8001e40:	681a      	ldr	r2, [r3, #0]
 8001e42:	68fb      	ldr	r3, [r7, #12]
 8001e44:	681b      	ldr	r3, [r3, #0]
 8001e46:	f042 0240 	orr.w	r2, r2, #64	; 0x40
 8001e4a:	601a      	str	r2, [r3, #0]
  }

  /* Receive data in 8 Bit mode */
  if (hspi->Init.DataSize == SPI_DATASIZE_8BIT)
 8001e4c:	68fb      	ldr	r3, [r7, #12]
 8001e4e:	68db      	ldr	r3, [r3, #12]
 8001e50:	2b00      	cmp	r3, #0
 8001e52:	d16a      	bne.n	8001f2a <HAL_SPI_Receive+0x1e8>
  {
    /* Transfer loop */
    while (hspi->RxXferCount > 0U)
 8001e54:	e032      	b.n	8001ebc <HAL_SPI_Receive+0x17a>
    {
      /* Check the RXNE flag */
      if (__HAL_SPI_GET_FLAG(hspi, SPI_FLAG_RXNE))
 8001e56:	68fb      	ldr	r3, [r7, #12]
 8001e58:	681b      	ldr	r3, [r3, #0]
 8001e5a:	689b      	ldr	r3, [r3, #8]
 8001e5c:	f003 0301 	and.w	r3, r3, #1
 8001e60:	2b01      	cmp	r3, #1
 8001e62:	d115      	bne.n	8001e90 <HAL_SPI_Receive+0x14e>
      {
        /* read the received data */
        (* (uint8_t *)hspi->pRxBuffPtr) = *(__IO uint8_t *)&hspi->Instance->DR;
 8001e64:	68fb      	ldr	r3, [r7, #12]
 8001e66:	681b      	ldr	r3, [r3, #0]
 8001e68:	f103 020c 	add.w	r2, r3, #12
 8001e6c:	68fb      	ldr	r3, [r7, #12]
 8001e6e:	6b9b      	ldr	r3, [r3, #56]	; 0x38
 8001e70:	7812      	ldrb	r2, [r2, #0]
 8001e72:	b2d2      	uxtb	r2, r2
 8001e74:	701a      	strb	r2, [r3, #0]
        hspi->pRxBuffPtr += sizeof(uint8_t);
 8001e76:	68fb      	ldr	r3, [r7, #12]
 8001e78:	6b9b      	ldr	r3, [r3, #56]	; 0x38
 8001e7a:	1c5a      	adds	r2, r3, #1
 8001e7c:	68fb      	ldr	r3, [r7, #12]
 8001e7e:	639a      	str	r2, [r3, #56]	; 0x38
        hspi->RxXferCount--;
 8001e80:	68fb      	ldr	r3, [r7, #12]
 8001e82:	8fdb      	ldrh	r3, [r3, #62]	; 0x3e
 8001e84:	b29b      	uxth	r3, r3
 8001e86:	3b01      	subs	r3, #1
 8001e88:	b29a      	uxth	r2, r3
 8001e8a:	68fb      	ldr	r3, [r7, #12]
 8001e8c:	87da      	strh	r2, [r3, #62]	; 0x3e
 8001e8e:	e015      	b.n	8001ebc <HAL_SPI_Receive+0x17a>
      }
      else
      {
        /* Timeout management */
        if ((((HAL_GetTick() - tickstart) >=  Timeout) && (Timeout != HAL_MAX_DELAY)) || (Timeout == 0U))
 8001e90:	f7fe feda 	bl	8000c48 <HAL_GetTick>
 8001e94:	4602      	mov	r2, r0
 8001e96:	693b      	ldr	r3, [r7, #16]
 8001e98:	1ad3      	subs	r3, r2, r3
 8001e9a:	683a      	ldr	r2, [r7, #0]
 8001e9c:	429a      	cmp	r2, r3
 8001e9e:	d803      	bhi.n	8001ea8 <HAL_SPI_Receive+0x166>
 8001ea0:	683b      	ldr	r3, [r7, #0]
 8001ea2:	f1b3 3fff 	cmp.w	r3, #4294967295
 8001ea6:	d102      	bne.n	8001eae <HAL_SPI_Receive+0x16c>
 8001ea8:	683b      	ldr	r3, [r7, #0]
 8001eaa:	2b00      	cmp	r3, #0
 8001eac:	d106      	bne.n	8001ebc <HAL_SPI_Receive+0x17a>
        {
          errorcode = HAL_TIMEOUT;
 8001eae:	2303      	movs	r3, #3
 8001eb0:	75fb      	strb	r3, [r7, #23]
          hspi->State = HAL_SPI_STATE_READY;
 8001eb2:	68fb      	ldr	r3, [r7, #12]
 8001eb4:	2201      	movs	r2, #1
 8001eb6:	f883 2051 	strb.w	r2, [r3, #81]	; 0x51
          goto error;
 8001eba:	e051      	b.n	8001f60 <HAL_SPI_Receive+0x21e>
    while (hspi->RxXferCount > 0U)
 8001ebc:	68fb      	ldr	r3, [r7, #12]
 8001ebe:	8fdb      	ldrh	r3, [r3, #62]	; 0x3e
 8001ec0:	b29b      	uxth	r3, r3
 8001ec2:	2b00      	cmp	r3, #0
 8001ec4:	d1c7      	bne.n	8001e56 <HAL_SPI_Receive+0x114>
 8001ec6:	e035      	b.n	8001f34 <HAL_SPI_Receive+0x1f2>
  {
    /* Transfer loop */
    while (hspi->RxXferCount > 0U)
    {
      /* Check the RXNE flag */
      if (__HAL_SPI_GET_FLAG(hspi, SPI_FLAG_RXNE))
 8001ec8:	68fb      	ldr	r3, [r7, #12]
 8001eca:	681b      	ldr	r3, [r3, #0]
 8001ecc:	689b      	ldr	r3, [r3, #8]
 8001ece:	f003 0301 	and.w	r3, r3, #1
 8001ed2:	2b01      	cmp	r3, #1
 8001ed4:	d113      	bne.n	8001efe <HAL_SPI_Receive+0x1bc>
      {
        *((uint16_t *)hspi->pRxBuffPtr) = (uint16_t)hspi->Instance->DR;
 8001ed6:	68fb      	ldr	r3, [r7, #12]
 8001ed8:	681b      	ldr	r3, [r3, #0]
 8001eda:	68da      	ldr	r2, [r3, #12]
 8001edc:	68fb      	ldr	r3, [r7, #12]
 8001ede:	6b9b      	ldr	r3, [r3, #56]	; 0x38
 8001ee0:	b292      	uxth	r2, r2
 8001ee2:	801a      	strh	r2, [r3, #0]
        hspi->pRxBuffPtr += sizeof(uint16_t);
 8001ee4:	68fb      	ldr	r3, [r7, #12]
 8001ee6:	6b9b      	ldr	r3, [r3, #56]	; 0x38
 8001ee8:	1c9a      	adds	r2, r3, #2
 8001eea:	68fb      	ldr	r3, [r7, #12]
 8001eec:	639a      	str	r2, [r3, #56]	; 0x38
        hspi->RxXferCount--;
 8001eee:	68fb      	ldr	r3, [r7, #12]
 8001ef0:	8fdb      	ldrh	r3, [r3, #62]	; 0x3e
 8001ef2:	b29b      	uxth	r3, r3
 8001ef4:	3b01      	subs	r3, #1
 8001ef6:	b29a      	uxth	r2, r3
 8001ef8:	68fb      	ldr	r3, [r7, #12]
 8001efa:	87da      	strh	r2, [r3, #62]	; 0x3e
 8001efc:	e015      	b.n	8001f2a <HAL_SPI_Receive+0x1e8>
      }
      else
      {
        /* Timeout management */
        if ((((HAL_GetTick() - tickstart) >=  Timeout) && (Timeout != HAL_MAX_DELAY)) || (Timeout == 0U))
 8001efe:	f7fe fea3 	bl	8000c48 <HAL_GetTick>
 8001f02:	4602      	mov	r2, r0
 8001f04:	693b      	ldr	r3, [r7, #16]
 8001f06:	1ad3      	subs	r3, r2, r3
 8001f08:	683a      	ldr	r2, [r7, #0]
 8001f0a:	429a      	cmp	r2, r3
 8001f0c:	d803      	bhi.n	8001f16 <HAL_SPI_Receive+0x1d4>
 8001f0e:	683b      	ldr	r3, [r7, #0]
 8001f10:	f1b3 3fff 	cmp.w	r3, #4294967295
 8001f14:	d102      	bne.n	8001f1c <HAL_SPI_Receive+0x1da>
 8001f16:	683b      	ldr	r3, [r7, #0]
 8001f18:	2b00      	cmp	r3, #0
 8001f1a:	d106      	bne.n	8001f2a <HAL_SPI_Receive+0x1e8>
        {
          errorcode = HAL_TIMEOUT;
 8001f1c:	2303      	movs	r3, #3
 8001f1e:	75fb      	strb	r3, [r7, #23]
          hspi->State = HAL_SPI_STATE_READY;
 8001f20:	68fb      	ldr	r3, [r7, #12]
 8001f22:	2201      	movs	r2, #1
 8001f24:	f883 2051 	strb.w	r2, [r3, #81]	; 0x51
          goto error;
 8001f28:	e01a      	b.n	8001f60 <HAL_SPI_Receive+0x21e>
    while (hspi->RxXferCount > 0U)
 8001f2a:	68fb      	ldr	r3, [r7, #12]
 8001f2c:	8fdb      	ldrh	r3, [r3, #62]	; 0x3e
 8001f2e:	b29b      	uxth	r3, r3
 8001f30:	2b00      	cmp	r3, #0
 8001f32:	d1c9      	bne.n	8001ec8 <HAL_SPI_Receive+0x186>
    UNUSED(tmpreg);
  }
#endif /* USE_SPI_CRC */

  /* Check the end of the transaction */
  if (SPI_EndRxTransaction(hspi, Timeout, tickstart) != HAL_OK)
 8001f34:	693a      	ldr	r2, [r7, #16]
 8001f36:	6839      	ldr	r1, [r7, #0]
 8001f38:	68f8      	ldr	r0, [r7, #12]
 8001f3a:	f000 fa5f 	bl	80023fc <SPI_EndRxTransaction>
 8001f3e:	4603      	mov	r3, r0
 8001f40:	2b00      	cmp	r3, #0
 8001f42:	d002      	beq.n	8001f4a <HAL_SPI_Receive+0x208>
  {
    hspi->ErrorCode = HAL_SPI_ERROR_FLAG;
 8001f44:	68fb      	ldr	r3, [r7, #12]
 8001f46:	2220      	movs	r2, #32
 8001f48:	655a      	str	r2, [r3, #84]	; 0x54
      __HAL_SPI_CLEAR_CRCERRFLAG(hspi);
    }
  }
#endif /* USE_SPI_CRC */

  if (hspi->ErrorCode != HAL_SPI_ERROR_NONE)
 8001f4a:	68fb      	ldr	r3, [r7, #12]
 8001f4c:	6d5b      	ldr	r3, [r3, #84]	; 0x54
 8001f4e:	2b00      	cmp	r3, #0
 8001f50:	d002      	beq.n	8001f58 <HAL_SPI_Receive+0x216>
  {
    errorcode = HAL_ERROR;
 8001f52:	2301      	movs	r3, #1
 8001f54:	75fb      	strb	r3, [r7, #23]
 8001f56:	e003      	b.n	8001f60 <HAL_SPI_Receive+0x21e>
  }
  else
  {
    hspi->State = HAL_SPI_STATE_READY;
 8001f58:	68fb      	ldr	r3, [r7, #12]
 8001f5a:	2201      	movs	r2, #1
 8001f5c:	f883 2051 	strb.w	r2, [r3, #81]	; 0x51
  }

error :
  __HAL_UNLOCK(hspi);
 8001f60:	68fb      	ldr	r3, [r7, #12]
 8001f62:	2200      	movs	r2, #0
 8001f64:	f883 2050 	strb.w	r2, [r3, #80]	; 0x50
  return errorcode;
 8001f68:	7dfb      	ldrb	r3, [r7, #23]
}
 8001f6a:	4618      	mov	r0, r3
 8001f6c:	3718      	adds	r7, #24
 8001f6e:	46bd      	mov	sp, r7
 8001f70:	bd80      	pop	{r7, pc}

08001f72 <HAL_SPI_TransmitReceive>:
  * @param  Timeout Timeout duration
  * @retval HAL status
  */
HAL_StatusTypeDef HAL_SPI_TransmitReceive(SPI_HandleTypeDef *hspi, uint8_t *pTxData, uint8_t *pRxData, uint16_t Size,
                                          uint32_t Timeout)
{
 8001f72:	b580      	push	{r7, lr}
 8001f74:	b08c      	sub	sp, #48	; 0x30
 8001f76:	af00      	add	r7, sp, #0
 8001f78:	60f8      	str	r0, [r7, #12]
 8001f7a:	60b9      	str	r1, [r7, #8]
 8001f7c:	607a      	str	r2, [r7, #4]
 8001f7e:	807b      	strh	r3, [r7, #2]
#if (USE_SPI_CRC != 0U)
  __IO uint32_t tmpreg = 0U;
#endif /* USE_SPI_CRC */

  /* Variable used to alternate Rx and Tx during transfer */
  uint32_t             txallowed = 1U;
 8001f80:	2301      	movs	r3, #1
 8001f82:	62fb      	str	r3, [r7, #44]	; 0x2c
  HAL_StatusTypeDef    errorcode = HAL_OK;
 8001f84:	2300      	movs	r3, #0
 8001f86:	f887 302b 	strb.w	r3, [r7, #43]	; 0x2b

  /* Check Direction parameter */
  assert_param(IS_SPI_DIRECTION_2LINES(hspi->Init.Direction));

  /* Process Locked */
  __HAL_LOCK(hspi);
 8001f8a:	68fb      	ldr	r3, [r7, #12]
 8001f8c:	f893 3050 	ldrb.w	r3, [r3, #80]	; 0x50
 8001f90:	2b01      	cmp	r3, #1
 8001f92:	d101      	bne.n	8001f98 <HAL_SPI_TransmitReceive+0x26>
 8001f94:	2302      	movs	r3, #2
 8001f96:	e198      	b.n	80022ca <HAL_SPI_TransmitReceive+0x358>
 8001f98:	68fb      	ldr	r3, [r7, #12]
 8001f9a:	2201      	movs	r2, #1
 8001f9c:	f883 2050 	strb.w	r2, [r3, #80]	; 0x50

  /* Init tickstart for timeout management*/
  tickstart = HAL_GetTick();
 8001fa0:	f7fe fe52 	bl	8000c48 <HAL_GetTick>
 8001fa4:	6278      	str	r0, [r7, #36]	; 0x24

  /* Init temporary variables */
  tmp_state           = hspi->State;
 8001fa6:	68fb      	ldr	r3, [r7, #12]
 8001fa8:	f893 3051 	ldrb.w	r3, [r3, #81]	; 0x51
 8001fac:	f887 3023 	strb.w	r3, [r7, #35]	; 0x23
  tmp_mode            = hspi->Init.Mode;
 8001fb0:	68fb      	ldr	r3, [r7, #12]
 8001fb2:	685b      	ldr	r3, [r3, #4]
 8001fb4:	61fb      	str	r3, [r7, #28]
  initial_TxXferCount = Size;
 8001fb6:	887b      	ldrh	r3, [r7, #2]
 8001fb8:	837b      	strh	r3, [r7, #26]

  if (!((tmp_state == HAL_SPI_STATE_READY) || \
 8001fba:	f897 3023 	ldrb.w	r3, [r7, #35]	; 0x23
 8001fbe:	2b01      	cmp	r3, #1
 8001fc0:	d00f      	beq.n	8001fe2 <HAL_SPI_TransmitReceive+0x70>
 8001fc2:	69fb      	ldr	r3, [r7, #28]
 8001fc4:	f5b3 7f82 	cmp.w	r3, #260	; 0x104
 8001fc8:	d107      	bne.n	8001fda <HAL_SPI_TransmitReceive+0x68>
        ((tmp_mode == SPI_MODE_MASTER) && (hspi->Init.Direction == SPI_DIRECTION_2LINES) && (tmp_state == HAL_SPI_STATE_BUSY_RX))))
 8001fca:	68fb      	ldr	r3, [r7, #12]
 8001fcc:	689b      	ldr	r3, [r3, #8]
 8001fce:	2b00      	cmp	r3, #0
 8001fd0:	d103      	bne.n	8001fda <HAL_SPI_TransmitReceive+0x68>
 8001fd2:	f897 3023 	ldrb.w	r3, [r7, #35]	; 0x23
 8001fd6:	2b04      	cmp	r3, #4
 8001fd8:	d003      	beq.n	8001fe2 <HAL_SPI_TransmitReceive+0x70>
  {
    errorcode = HAL_BUSY;
 8001fda:	2302      	movs	r3, #2
 8001fdc:	f887 302b 	strb.w	r3, [r7, #43]	; 0x2b
    goto error;
 8001fe0:	e16d      	b.n	80022be <HAL_SPI_TransmitReceive+0x34c>
  }

  if ((pTxData == NULL) || (pRxData == NULL) || (Size == 0U))
 8001fe2:	68bb      	ldr	r3, [r7, #8]
 8001fe4:	2b00      	cmp	r3, #0
 8001fe6:	d005      	beq.n	8001ff4 <HAL_SPI_TransmitReceive+0x82>
 8001fe8:	687b      	ldr	r3, [r7, #4]
 8001fea:	2b00      	cmp	r3, #0
 8001fec:	d002      	beq.n	8001ff4 <HAL_SPI_TransmitReceive+0x82>
 8001fee:	887b      	ldrh	r3, [r7, #2]
 8001ff0:	2b00      	cmp	r3, #0
 8001ff2:	d103      	bne.n	8001ffc <HAL_SPI_TransmitReceive+0x8a>
  {
    errorcode = HAL_ERROR;
 8001ff4:	2301      	movs	r3, #1
 8001ff6:	f887 302b 	strb.w	r3, [r7, #43]	; 0x2b
    goto error;
 8001ffa:	e160      	b.n	80022be <HAL_SPI_TransmitReceive+0x34c>
  }

  /* Don't overwrite in case of HAL_SPI_STATE_BUSY_RX */
  if (hspi->State != HAL_SPI_STATE_BUSY_RX)
 8001ffc:	68fb      	ldr	r3, [r7, #12]
 8001ffe:	f893 3051 	ldrb.w	r3, [r3, #81]	; 0x51
 8002002:	b2db      	uxtb	r3, r3
 8002004:	2b04      	cmp	r3, #4
 8002006:	d003      	beq.n	8002010 <HAL_SPI_TransmitReceive+0x9e>
  {
    hspi->State = HAL_SPI_STATE_BUSY_TX_RX;
 8002008:	68fb      	ldr	r3, [r7, #12]
 800200a:	2205      	movs	r2, #5
 800200c:	f883 2051 	strb.w	r2, [r3, #81]	; 0x51
  }

  /* Set the transaction information */
  hspi->ErrorCode   = HAL_SPI_ERROR_NONE;
 8002010:	68fb      	ldr	r3, [r7, #12]
 8002012:	2200      	movs	r2, #0
 8002014:	655a      	str	r2, [r3, #84]	; 0x54
  hspi->pRxBuffPtr  = (uint8_t *)pRxData;
 8002016:	68fb      	ldr	r3, [r7, #12]
 8002018:	687a      	ldr	r2, [r7, #4]
 800201a:	639a      	str	r2, [r3, #56]	; 0x38
  hspi->RxXferCount = Size;
 800201c:	68fb      	ldr	r3, [r7, #12]
 800201e:	887a      	ldrh	r2, [r7, #2]
 8002020:	87da      	strh	r2, [r3, #62]	; 0x3e
  hspi->RxXferSize  = Size;
 8002022:	68fb      	ldr	r3, [r7, #12]
 8002024:	887a      	ldrh	r2, [r7, #2]
 8002026:	879a      	strh	r2, [r3, #60]	; 0x3c
  hspi->pTxBuffPtr  = (uint8_t *)pTxData;
 8002028:	68fb      	ldr	r3, [r7, #12]
 800202a:	68ba      	ldr	r2, [r7, #8]
 800202c:	631a      	str	r2, [r3, #48]	; 0x30
  hspi->TxXferCount = Size;
 800202e:	68fb      	ldr	r3, [r7, #12]
 8002030:	887a      	ldrh	r2, [r7, #2]
 8002032:	86da      	strh	r2, [r3, #54]	; 0x36
  hspi->TxXferSize  = Size;
 8002034:	68fb      	ldr	r3, [r7, #12]
 8002036:	887a      	ldrh	r2, [r7, #2]
 8002038:	869a      	strh	r2, [r3, #52]	; 0x34

  /*Init field not used in handle to zero */
  hspi->RxISR       = NULL;
 800203a:	68fb      	ldr	r3, [r7, #12]
 800203c:	2200      	movs	r2, #0
 800203e:	641a      	str	r2, [r3, #64]	; 0x40
  hspi->TxISR       = NULL;
 8002040:	68fb      	ldr	r3, [r7, #12]
 8002042:	2200      	movs	r2, #0
 8002044:	645a      	str	r2, [r3, #68]	; 0x44
    SPI_RESET_CRC(hspi);
  }
#endif /* USE_SPI_CRC */

  /* Check if the SPI is already enabled */
  if ((hspi->Instance->CR1 & SPI_CR1_SPE) != SPI_CR1_SPE)
 8002046:	68fb      	ldr	r3, [r7, #12]
 8002048:	681b      	ldr	r3, [r3, #0]
 800204a:	681b      	ldr	r3, [r3, #0]
 800204c:	f003 0340 	and.w	r3, r3, #64	; 0x40
 8002050:	2b40      	cmp	r3, #64	; 0x40
 8002052:	d007      	beq.n	8002064 <HAL_SPI_TransmitReceive+0xf2>
  {
    /* Enable SPI peripheral */
    __HAL_SPI_ENABLE(hspi);
 8002054:	68fb      	ldr	r3, [r7, #12]
 8002056:	681b      	ldr	r3, [r3, #0]
 8002058:	681a      	ldr	r2, [r3, #0]
 800205a:	68fb      	ldr	r3, [r7, #12]
 800205c:	681b      	ldr	r3, [r3, #0]
 800205e:	f042 0240 	orr.w	r2, r2, #64	; 0x40
 8002062:	601a      	str	r2, [r3, #0]
  }

  /* Transmit and Receive data in 16 Bit mode */
  if (hspi->Init.DataSize == SPI_DATASIZE_16BIT)
 8002064:	68fb      	ldr	r3, [r7, #12]
 8002066:	68db      	ldr	r3, [r3, #12]
 8002068:	f5b3 6f00 	cmp.w	r3, #2048	; 0x800
 800206c:	d17c      	bne.n	8002168 <HAL_SPI_TransmitReceive+0x1f6>
  {
    if ((hspi->Init.Mode == SPI_MODE_SLAVE) || (initial_TxXferCount == 0x01U))
 800206e:	68fb      	ldr	r3, [r7, #12]
 8002070:	685b      	ldr	r3, [r3, #4]
 8002072:	2b00      	cmp	r3, #0
 8002074:	d002      	beq.n	800207c <HAL_SPI_TransmitReceive+0x10a>
 8002076:	8b7b      	ldrh	r3, [r7, #26]
 8002078:	2b01      	cmp	r3, #1
 800207a:	d16a      	bne.n	8002152 <HAL_SPI_TransmitReceive+0x1e0>
    {
      hspi->Instance->DR = *((uint16_t *)hspi->pTxBuffPtr);
 800207c:	68fb      	ldr	r3, [r7, #12]
 800207e:	6b1b      	ldr	r3, [r3, #48]	; 0x30
 8002080:	881a      	ldrh	r2, [r3, #0]
 8002082:	68fb      	ldr	r3, [r7, #12]
 8002084:	681b      	ldr	r3, [r3, #0]
 8002086:	60da      	str	r2, [r3, #12]
      hspi->pTxBuffPtr += sizeof(uint16_t);
 8002088:	68fb      	ldr	r3, [r7, #12]
 800208a:	6b1b      	ldr	r3, [r3, #48]	; 0x30
 800208c:	1c9a      	adds	r2, r3, #2
 800208e:	68fb      	ldr	r3, [r7, #12]
 8002090:	631a      	str	r2, [r3, #48]	; 0x30
      hspi->TxXferCount--;
 8002092:	68fb      	ldr	r3, [r7, #12]
 8002094:	8edb      	ldrh	r3, [r3, #54]	; 0x36
 8002096:	b29b      	uxth	r3, r3
 8002098:	3b01      	subs	r3, #1
 800209a:	b29a      	uxth	r2, r3
 800209c:	68fb      	ldr	r3, [r7, #12]
 800209e:	86da      	strh	r2, [r3, #54]	; 0x36
    }
    while ((hspi->TxXferCount > 0U) || (hspi->RxXferCount > 0U))
 80020a0:	e057      	b.n	8002152 <HAL_SPI_TransmitReceive+0x1e0>
    {
      /* Check TXE flag */
      if ((__HAL_SPI_GET_FLAG(hspi, SPI_FLAG_TXE)) && (hspi->TxXferCount > 0U) && (txallowed == 1U))
 80020a2:	68fb      	ldr	r3, [r7, #12]
 80020a4:	681b      	ldr	r3, [r3, #0]
 80020a6:	689b      	ldr	r3, [r3, #8]
 80020a8:	f003 0302 	and.w	r3, r3, #2
 80020ac:	2b02      	cmp	r3, #2
 80020ae:	d11b      	bne.n	80020e8 <HAL_SPI_TransmitReceive+0x176>
 80020b0:	68fb      	ldr	r3, [r7, #12]
 80020b2:	8edb      	ldrh	r3, [r3, #54]	; 0x36
 80020b4:	b29b      	uxth	r3, r3
 80020b6:	2b00      	cmp	r3, #0
 80020b8:	d016      	beq.n	80020e8 <HAL_SPI_TransmitReceive+0x176>
 80020ba:	6afb      	ldr	r3, [r7, #44]	; 0x2c
 80020bc:	2b01      	cmp	r3, #1
 80020be:	d113      	bne.n	80020e8 <HAL_SPI_TransmitReceive+0x176>
      {
        hspi->Instance->DR = *((uint16_t *)hspi->pTxBuffPtr);
 80020c0:	68fb      	ldr	r3, [r7, #12]
 80020c2:	6b1b      	ldr	r3, [r3, #48]	; 0x30
 80020c4:	881a      	ldrh	r2, [r3, #0]
 80020c6:	68fb      	ldr	r3, [r7, #12]
 80020c8:	681b      	ldr	r3, [r3, #0]
 80020ca:	60da      	str	r2, [r3, #12]
        hspi->pTxBuffPtr += sizeof(uint16_t);
 80020cc:	68fb      	ldr	r3, [r7, #12]
 80020ce:	6b1b      	ldr	r3, [r3, #48]	; 0x30
 80020d0:	1c9a      	adds	r2, r3, #2
 80020d2:	68fb      	ldr	r3, [r7, #12]
 80020d4:	631a      	str	r2, [r3, #48]	; 0x30
        hspi->TxXferCount--;
 80020d6:	68fb      	ldr	r3, [r7, #12]
 80020d8:	8edb      	ldrh	r3, [r3, #54]	; 0x36
 80020da:	b29b      	uxth	r3, r3
 80020dc:	3b01      	subs	r3, #1
 80020de:	b29a      	uxth	r2, r3
 80020e0:	68fb      	ldr	r3, [r7, #12]
 80020e2:	86da      	strh	r2, [r3, #54]	; 0x36
        /* Next Data is a reception (Rx). Tx not allowed */
        txallowed = 0U;
 80020e4:	2300      	movs	r3, #0
 80020e6:	62fb      	str	r3, [r7, #44]	; 0x2c
        }
#endif /* USE_SPI_CRC */
      }

      /* Check RXNE flag */
      if ((__HAL_SPI_GET_FLAG(hspi, SPI_FLAG_RXNE)) && (hspi->RxXferCount > 0U))
 80020e8:	68fb      	ldr	r3, [r7, #12]
 80020ea:	681b      	ldr	r3, [r3, #0]
 80020ec:	689b      	ldr	r3, [r3, #8]
 80020ee:	f003 0301 	and.w	r3, r3, #1
 80020f2:	2b01      	cmp	r3, #1
 80020f4:	d119      	bne.n	800212a <HAL_SPI_TransmitReceive+0x1b8>
 80020f6:	68fb      	ldr	r3, [r7, #12]
 80020f8:	8fdb      	ldrh	r3, [r3, #62]	; 0x3e
 80020fa:	b29b      	uxth	r3, r3
 80020fc:	2b00      	cmp	r3, #0
 80020fe:	d014      	beq.n	800212a <HAL_SPI_TransmitReceive+0x1b8>
      {
        *((uint16_t *)hspi->pRxBuffPtr) = (uint16_t)hspi->Instance->DR;
 8002100:	68fb      	ldr	r3, [r7, #12]
 8002102:	681b      	ldr	r3, [r3, #0]
 8002104:	68da      	ldr	r2, [r3, #12]
 8002106:	68fb      	ldr	r3, [r7, #12]
 8002108:	6b9b      	ldr	r3, [r3, #56]	; 0x38
 800210a:	b292      	uxth	r2, r2
 800210c:	801a      	strh	r2, [r3, #0]
        hspi->pRxBuffPtr += sizeof(uint16_t);
 800210e:	68fb      	ldr	r3, [r7, #12]
 8002110:	6b9b      	ldr	r3, [r3, #56]	; 0x38
 8002112:	1c9a      	adds	r2, r3, #2
 8002114:	68fb      	ldr	r3, [r7, #12]
 8002116:	639a      	str	r2, [r3, #56]	; 0x38
        hspi->RxXferCount--;
 8002118:	68fb      	ldr	r3, [r7, #12]
 800211a:	8fdb      	ldrh	r3, [r3, #62]	; 0x3e
 800211c:	b29b      	uxth	r3, r3
 800211e:	3b01      	subs	r3, #1
 8002120:	b29a      	uxth	r2, r3
 8002122:	68fb      	ldr	r3, [r7, #12]
 8002124:	87da      	strh	r2, [r3, #62]	; 0x3e
        /* Next Data is a Transmission (Tx). Tx is allowed */
        txallowed = 1U;
 8002126:	2301      	movs	r3, #1
 8002128:	62fb      	str	r3, [r7, #44]	; 0x2c
      }
      if (((HAL_GetTick() - tickstart) >=  Timeout) && (Timeout != HAL_MAX_DELAY))
 800212a:	f7fe fd8d 	bl	8000c48 <HAL_GetTick>
 800212e:	4602      	mov	r2, r0
 8002130:	6a7b      	ldr	r3, [r7, #36]	; 0x24
 8002132:	1ad3      	subs	r3, r2, r3
 8002134:	6bba      	ldr	r2, [r7, #56]	; 0x38
 8002136:	429a      	cmp	r2, r3
 8002138:	d80b      	bhi.n	8002152 <HAL_SPI_TransmitReceive+0x1e0>
 800213a:	6bbb      	ldr	r3, [r7, #56]	; 0x38
 800213c:	f1b3 3fff 	cmp.w	r3, #4294967295
 8002140:	d007      	beq.n	8002152 <HAL_SPI_TransmitReceive+0x1e0>
      {
        errorcode = HAL_TIMEOUT;
 8002142:	2303      	movs	r3, #3
 8002144:	f887 302b 	strb.w	r3, [r7, #43]	; 0x2b
        hspi->State = HAL_SPI_STATE_READY;
 8002148:	68fb      	ldr	r3, [r7, #12]
 800214a:	2201      	movs	r2, #1
 800214c:	f883 2051 	strb.w	r2, [r3, #81]	; 0x51
        goto error;
 8002150:	e0b5      	b.n	80022be <HAL_SPI_TransmitReceive+0x34c>
    while ((hspi->TxXferCount > 0U) || (hspi->RxXferCount > 0U))
 8002152:	68fb      	ldr	r3, [r7, #12]
 8002154:	8edb      	ldrh	r3, [r3, #54]	; 0x36
 8002156:	b29b      	uxth	r3, r3
 8002158:	2b00      	cmp	r3, #0
 800215a:	d1a2      	bne.n	80020a2 <HAL_SPI_TransmitReceive+0x130>
 800215c:	68fb      	ldr	r3, [r7, #12]
 800215e:	8fdb      	ldrh	r3, [r3, #62]	; 0x3e
 8002160:	b29b      	uxth	r3, r3
 8002162:	2b00      	cmp	r3, #0
 8002164:	d19d      	bne.n	80020a2 <HAL_SPI_TransmitReceive+0x130>
 8002166:	e080      	b.n	800226a <HAL_SPI_TransmitReceive+0x2f8>
    }
  }
  /* Transmit and Receive data in 8 Bit mode */
  else
  {
    if ((hspi->Init.Mode == SPI_MODE_SLAVE) || (initial_TxXferCount == 0x01U))
 8002168:	68fb      	ldr	r3, [r7, #12]
 800216a:	685b      	ldr	r3, [r3, #4]
 800216c:	2b00      	cmp	r3, #0
 800216e:	d002      	beq.n	8002176 <HAL_SPI_TransmitReceive+0x204>
 8002170:	8b7b      	ldrh	r3, [r7, #26]
 8002172:	2b01      	cmp	r3, #1
 8002174:	d16f      	bne.n	8002256 <HAL_SPI_TransmitReceive+0x2e4>
    {
      *((__IO uint8_t *)&hspi->Instance->DR) = (*hspi->pTxBuffPtr);
 8002176:	68fb      	ldr	r3, [r7, #12]
 8002178:	6b1a      	ldr	r2, [r3, #48]	; 0x30
 800217a:	68fb      	ldr	r3, [r7, #12]
 800217c:	681b      	ldr	r3, [r3, #0]
 800217e:	330c      	adds	r3, #12
 8002180:	7812      	ldrb	r2, [r2, #0]
 8002182:	701a      	strb	r2, [r3, #0]
      hspi->pTxBuffPtr += sizeof(uint8_t);
 8002184:	68fb      	ldr	r3, [r7, #12]
 8002186:	6b1b      	ldr	r3, [r3, #48]	; 0x30
 8002188:	1c5a      	adds	r2, r3, #1
 800218a:	68fb      	ldr	r3, [r7, #12]
 800218c:	631a      	str	r2, [r3, #48]	; 0x30
      hspi->TxXferCount--;
 800218e:	68fb      	ldr	r3, [r7, #12]
 8002190:	8edb      	ldrh	r3, [r3, #54]	; 0x36
 8002192:	b29b      	uxth	r3, r3
 8002194:	3b01      	subs	r3, #1
 8002196:	b29a      	uxth	r2, r3
 8002198:	68fb      	ldr	r3, [r7, #12]
 800219a:	86da      	strh	r2, [r3, #54]	; 0x36
    }
    while ((hspi->TxXferCount > 0U) || (hspi->RxXferCount > 0U))
 800219c:	e05b      	b.n	8002256 <HAL_SPI_TransmitReceive+0x2e4>
    {
      /* Check TXE flag */
      if ((__HAL_SPI_GET_FLAG(hspi, SPI_FLAG_TXE)) && (hspi->TxXferCount > 0U) && (txallowed == 1U))
 800219e:	68fb      	ldr	r3, [r7, #12]
 80021a0:	681b      	ldr	r3, [r3, #0]
 80021a2:	689b      	ldr	r3, [r3, #8]
 80021a4:	f003 0302 	and.w	r3, r3, #2
 80021a8:	2b02      	cmp	r3, #2
 80021aa:	d11c      	bne.n	80021e6 <HAL_SPI_TransmitReceive+0x274>
 80021ac:	68fb      	ldr	r3, [r7, #12]
 80021ae:	8edb      	ldrh	r3, [r3, #54]	; 0x36
 80021b0:	b29b      	uxth	r3, r3
 80021b2:	2b00      	cmp	r3, #0
 80021b4:	d017      	beq.n	80021e6 <HAL_SPI_TransmitReceive+0x274>
 80021b6:	6afb      	ldr	r3, [r7, #44]	; 0x2c
 80021b8:	2b01      	cmp	r3, #1
 80021ba:	d114      	bne.n	80021e6 <HAL_SPI_TransmitReceive+0x274>
      {
        *(__IO uint8_t *)&hspi->Instance->DR = (*hspi->pTxBuffPtr);
 80021bc:	68fb      	ldr	r3, [r7, #12]
 80021be:	6b1a      	ldr	r2, [r3, #48]	; 0x30
 80021c0:	68fb      	ldr	r3, [r7, #12]
 80021c2:	681b      	ldr	r3, [r3, #0]
 80021c4:	330c      	adds	r3, #12
 80021c6:	7812      	ldrb	r2, [r2, #0]
 80021c8:	701a      	strb	r2, [r3, #0]
        hspi->pTxBuffPtr++;
 80021ca:	68fb      	ldr	r3, [r7, #12]
 80021cc:	6b1b      	ldr	r3, [r3, #48]	; 0x30
 80021ce:	1c5a      	adds	r2, r3, #1
 80021d0:	68fb      	ldr	r3, [r7, #12]
 80021d2:	631a      	str	r2, [r3, #48]	; 0x30
        hspi->TxXferCount--;
 80021d4:	68fb      	ldr	r3, [r7, #12]
 80021d6:	8edb      	ldrh	r3, [r3, #54]	; 0x36
 80021d8:	b29b      	uxth	r3, r3
 80021da:	3b01      	subs	r3, #1
 80021dc:	b29a      	uxth	r2, r3
 80021de:	68fb      	ldr	r3, [r7, #12]
 80021e0:	86da      	strh	r2, [r3, #54]	; 0x36
        /* Next Data is a reception (Rx). Tx not allowed */
        txallowed = 0U;
 80021e2:	2300      	movs	r3, #0
 80021e4:	62fb      	str	r3, [r7, #44]	; 0x2c
        }
#endif /* USE_SPI_CRC */
      }

      /* Wait until RXNE flag is reset */
      if ((__HAL_SPI_GET_FLAG(hspi, SPI_FLAG_RXNE)) && (hspi->RxXferCount > 0U))
 80021e6:	68fb      	ldr	r3, [r7, #12]
 80021e8:	681b      	ldr	r3, [r3, #0]
 80021ea:	689b      	ldr	r3, [r3, #8]
 80021ec:	f003 0301 	and.w	r3, r3, #1
 80021f0:	2b01      	cmp	r3, #1
 80021f2:	d119      	bne.n	8002228 <HAL_SPI_TransmitReceive+0x2b6>
 80021f4:	68fb      	ldr	r3, [r7, #12]
 80021f6:	8fdb      	ldrh	r3, [r3, #62]	; 0x3e
 80021f8:	b29b      	uxth	r3, r3
 80021fa:	2b00      	cmp	r3, #0
 80021fc:	d014      	beq.n	8002228 <HAL_SPI_TransmitReceive+0x2b6>
      {
        (*(uint8_t *)hspi->pRxBuffPtr) = hspi->Instance->DR;
 80021fe:	68fb      	ldr	r3, [r7, #12]
 8002200:	681b      	ldr	r3, [r3, #0]
 8002202:	68da      	ldr	r2, [r3, #12]
 8002204:	68fb      	ldr	r3, [r7, #12]
 8002206:	6b9b      	ldr	r3, [r3, #56]	; 0x38
 8002208:	b2d2      	uxtb	r2, r2
 800220a:	701a      	strb	r2, [r3, #0]
        hspi->pRxBuffPtr++;
 800220c:	68fb      	ldr	r3, [r7, #12]
 800220e:	6b9b      	ldr	r3, [r3, #56]	; 0x38
 8002210:	1c5a      	adds	r2, r3, #1
 8002212:	68fb      	ldr	r3, [r7, #12]
 8002214:	639a      	str	r2, [r3, #56]	; 0x38
        hspi->RxXferCount--;
 8002216:	68fb      	ldr	r3, [r7, #12]
 8002218:	8fdb      	ldrh	r3, [r3, #62]	; 0x3e
 800221a:	b29b      	uxth	r3, r3
 800221c:	3b01      	subs	r3, #1
 800221e:	b29a      	uxth	r2, r3
 8002220:	68fb      	ldr	r3, [r7, #12]
 8002222:	87da      	strh	r2, [r3, #62]	; 0x3e
        /* Next Data is a Transmission (Tx). Tx is allowed */
        txallowed = 1U;
 8002224:	2301      	movs	r3, #1
 8002226:	62fb      	str	r3, [r7, #44]	; 0x2c
      }
      if ((((HAL_GetTick() - tickstart) >=  Timeout) && ((Timeout != HAL_MAX_DELAY))) || (Timeout == 0U))
 8002228:	f7fe fd0e 	bl	8000c48 <HAL_GetTick>
 800222c:	4602      	mov	r2, r0
 800222e:	6a7b      	ldr	r3, [r7, #36]	; 0x24
 8002230:	1ad3      	subs	r3, r2, r3
 8002232:	6bba      	ldr	r2, [r7, #56]	; 0x38
 8002234:	429a      	cmp	r2, r3
 8002236:	d803      	bhi.n	8002240 <HAL_SPI_TransmitReceive+0x2ce>
 8002238:	6bbb      	ldr	r3, [r7, #56]	; 0x38
 800223a:	f1b3 3fff 	cmp.w	r3, #4294967295
 800223e:	d102      	bne.n	8002246 <HAL_SPI_TransmitReceive+0x2d4>
 8002240:	6bbb      	ldr	r3, [r7, #56]	; 0x38
 8002242:	2b00      	cmp	r3, #0
 8002244:	d107      	bne.n	8002256 <HAL_SPI_TransmitReceive+0x2e4>
      {
        errorcode = HAL_TIMEOUT;
 8002246:	2303      	movs	r3, #3
 8002248:	f887 302b 	strb.w	r3, [r7, #43]	; 0x2b
        hspi->State = HAL_SPI_STATE_READY;
 800224c:	68fb      	ldr	r3, [r7, #12]
 800224e:	2201      	movs	r2, #1
 8002250:	f883 2051 	strb.w	r2, [r3, #81]	; 0x51
        goto error;
 8002254:	e033      	b.n	80022be <HAL_SPI_TransmitReceive+0x34c>
    while ((hspi->TxXferCount > 0U) || (hspi->RxXferCount > 0U))
 8002256:	68fb      	ldr	r3, [r7, #12]
 8002258:	8edb      	ldrh	r3, [r3, #54]	; 0x36
 800225a:	b29b      	uxth	r3, r3
 800225c:	2b00      	cmp	r3, #0
 800225e:	d19e      	bne.n	800219e <HAL_SPI_TransmitReceive+0x22c>
 8002260:	68fb      	ldr	r3, [r7, #12]
 8002262:	8fdb      	ldrh	r3, [r3, #62]	; 0x3e
 8002264:	b29b      	uxth	r3, r3
 8002266:	2b00      	cmp	r3, #0
 8002268:	d199      	bne.n	800219e <HAL_SPI_TransmitReceive+0x22c>
    }
  }
#endif /* USE_SPI_CRC */

  /* Check the end of the transaction */
  if (SPI_EndRxTxTransaction(hspi, Timeout, tickstart) != HAL_OK)
 800226a:	6a7a      	ldr	r2, [r7, #36]	; 0x24
 800226c:	6bb9      	ldr	r1, [r7, #56]	; 0x38
 800226e:	68f8      	ldr	r0, [r7, #12]
 8002270:	f000 f916 	bl	80024a0 <SPI_EndRxTxTransaction>
 8002274:	4603      	mov	r3, r0
 8002276:	2b00      	cmp	r3, #0
 8002278:	d006      	beq.n	8002288 <HAL_SPI_TransmitReceive+0x316>
  {
    errorcode = HAL_ERROR;
 800227a:	2301      	movs	r3, #1
 800227c:	f887 302b 	strb.w	r3, [r7, #43]	; 0x2b
    hspi->ErrorCode = HAL_SPI_ERROR_FLAG;
 8002280:	68fb      	ldr	r3, [r7, #12]
 8002282:	2220      	movs	r2, #32
 8002284:	655a      	str	r2, [r3, #84]	; 0x54
    goto error;
 8002286:	e01a      	b.n	80022be <HAL_SPI_TransmitReceive+0x34c>
  }

  /* Clear overrun flag in 2 Lines communication mode because received is not read */
  if (hspi->Init.Direction == SPI_DIRECTION_2LINES)
 8002288:	68fb      	ldr	r3, [r7, #12]
 800228a:	689b      	ldr	r3, [r3, #8]
 800228c:	2b00      	cmp	r3, #0
 800228e:	d10a      	bne.n	80022a6 <HAL_SPI_TransmitReceive+0x334>
  {
    __HAL_SPI_CLEAR_OVRFLAG(hspi);
 8002290:	2300      	movs	r3, #0
 8002292:	617b      	str	r3, [r7, #20]
 8002294:	68fb      	ldr	r3, [r7, #12]
 8002296:	681b      	ldr	r3, [r3, #0]
 8002298:	68db      	ldr	r3, [r3, #12]
 800229a:	617b      	str	r3, [r7, #20]
 800229c:	68fb      	ldr	r3, [r7, #12]
 800229e:	681b      	ldr	r3, [r3, #0]
 80022a0:	689b      	ldr	r3, [r3, #8]
 80022a2:	617b      	str	r3, [r7, #20]
 80022a4:	697b      	ldr	r3, [r7, #20]
  }

  if (hspi->ErrorCode != HAL_SPI_ERROR_NONE)
 80022a6:	68fb      	ldr	r3, [r7, #12]
 80022a8:	6d5b      	ldr	r3, [r3, #84]	; 0x54
 80022aa:	2b00      	cmp	r3, #0
 80022ac:	d003      	beq.n	80022b6 <HAL_SPI_TransmitReceive+0x344>
  {
    errorcode = HAL_ERROR;
 80022ae:	2301      	movs	r3, #1
 80022b0:	f887 302b 	strb.w	r3, [r7, #43]	; 0x2b
 80022b4:	e003      	b.n	80022be <HAL_SPI_TransmitReceive+0x34c>
  }
  else
  {
    hspi->State = HAL_SPI_STATE_READY;
 80022b6:	68fb      	ldr	r3, [r7, #12]
 80022b8:	2201      	movs	r2, #1
 80022ba:	f883 2051 	strb.w	r2, [r3, #81]	; 0x51
  }
  
error :
  __HAL_UNLOCK(hspi);
 80022be:	68fb      	ldr	r3, [r7, #12]
 80022c0:	2200      	movs	r2, #0
 80022c2:	f883 2050 	strb.w	r2, [r3, #80]	; 0x50
  return errorcode;
 80022c6:	f897 302b 	ldrb.w	r3, [r7, #43]	; 0x2b
}
 80022ca:	4618      	mov	r0, r3
 80022cc:	3730      	adds	r7, #48	; 0x30
 80022ce:	46bd      	mov	sp, r7
 80022d0:	bd80      	pop	{r7, pc}

080022d2 <HAL_SPI_GetState>:
  * @param  hspi pointer to a SPI_HandleTypeDef structure that contains
  *               the configuration information for SPI module.
  * @retval SPI state
  */
HAL_SPI_StateTypeDef HAL_SPI_GetState(SPI_HandleTypeDef *hspi)
{
 80022d2:	b480      	push	{r7}
 80022d4:	b083      	sub	sp, #12
 80022d6:	af00      	add	r7, sp, #0
 80022d8:	6078      	str	r0, [r7, #4]
  /* Return SPI handle state */
  return hspi->State;
 80022da:	687b      	ldr	r3, [r7, #4]
 80022dc:	f893 3051 	ldrb.w	r3, [r3, #81]	; 0x51
 80022e0:	b2db      	uxtb	r3, r3
}
 80022e2:	4618      	mov	r0, r3
 80022e4:	370c      	adds	r7, #12
 80022e6:	46bd      	mov	sp, r7
 80022e8:	bc80      	pop	{r7}
 80022ea:	4770      	bx	lr

080022ec <SPI_WaitFlagStateUntilTimeout>:
  * @param  Tickstart tick start value
  * @retval HAL status
  */
static HAL_StatusTypeDef SPI_WaitFlagStateUntilTimeout(SPI_HandleTypeDef *hspi, uint32_t Flag, FlagStatus State,
                                                       uint32_t Timeout, uint32_t Tickstart)
{
 80022ec:	b580      	push	{r7, lr}
 80022ee:	b088      	sub	sp, #32
 80022f0:	af00      	add	r7, sp, #0
 80022f2:	60f8      	str	r0, [r7, #12]
 80022f4:	60b9      	str	r1, [r7, #8]
 80022f6:	603b      	str	r3, [r7, #0]
 80022f8:	4613      	mov	r3, r2
 80022fa:	71fb      	strb	r3, [r7, #7]
  __IO uint32_t count;
  uint32_t tmp_timeout;
  uint32_t tmp_tickstart;

  /* Adjust Timeout value  in case of end of transfer */
  tmp_timeout   = Timeout - (HAL_GetTick() - Tickstart);
 80022fc:	f7fe fca4 	bl	8000c48 <HAL_GetTick>
 8002300:	4602      	mov	r2, r0
 8002302:	6abb      	ldr	r3, [r7, #40]	; 0x28
 8002304:	1a9b      	subs	r3, r3, r2
 8002306:	683a      	ldr	r2, [r7, #0]
 8002308:	4413      	add	r3, r2
 800230a:	61fb      	str	r3, [r7, #28]
  tmp_tickstart = HAL_GetTick();
 800230c:	f7fe fc9c 	bl	8000c48 <HAL_GetTick>
 8002310:	61b8      	str	r0, [r7, #24]

  /* Calculate Timeout based on a software loop to avoid blocking issue if Systick is disabled */
  count = tmp_timeout * ((SystemCoreClock * 32U) >> 20U);
 8002312:	4b39      	ldr	r3, [pc, #228]	; (80023f8 <SPI_WaitFlagStateUntilTimeout+0x10c>)
 8002314:	681b      	ldr	r3, [r3, #0]
 8002316:	015b      	lsls	r3, r3, #5
 8002318:	0d1b      	lsrs	r3, r3, #20
 800231a:	69fa      	ldr	r2, [r7, #28]
 800231c:	fb02 f303 	mul.w	r3, r2, r3
 8002320:	617b      	str	r3, [r7, #20]

  while ((__HAL_SPI_GET_FLAG(hspi, Flag) ? SET : RESET) != State)
 8002322:	e054      	b.n	80023ce <SPI_WaitFlagStateUntilTimeout+0xe2>
  {
    if (Timeout != HAL_MAX_DELAY)
 8002324:	683b      	ldr	r3, [r7, #0]
 8002326:	f1b3 3fff 	cmp.w	r3, #4294967295
 800232a:	d050      	beq.n	80023ce <SPI_WaitFlagStateUntilTimeout+0xe2>
    {
      if (((HAL_GetTick() - tmp_tickstart) >= tmp_timeout) || (tmp_timeout == 0U))
 800232c:	f7fe fc8c 	bl	8000c48 <HAL_GetTick>
 8002330:	4602      	mov	r2, r0
 8002332:	69bb      	ldr	r3, [r7, #24]
 8002334:	1ad3      	subs	r3, r2, r3
 8002336:	69fa      	ldr	r2, [r7, #28]
 8002338:	429a      	cmp	r2, r3
 800233a:	d902      	bls.n	8002342 <SPI_WaitFlagStateUntilTimeout+0x56>
 800233c:	69fb      	ldr	r3, [r7, #28]
 800233e:	2b00      	cmp	r3, #0
 8002340:	d13d      	bne.n	80023be <SPI_WaitFlagStateUntilTimeout+0xd2>
        /* Disable the SPI and reset the CRC: the CRC value should be cleared
           on both master and slave sides in order to resynchronize the master
           and slave for their respective CRC calculation */

        /* Disable TXE, RXNE and ERR interrupts for the interrupt process */
        __HAL_SPI_DISABLE_IT(hspi, (SPI_IT_TXE | SPI_IT_RXNE | SPI_IT_ERR));
 8002342:	68fb      	ldr	r3, [r7, #12]
 8002344:	681b      	ldr	r3, [r3, #0]
 8002346:	685a      	ldr	r2, [r3, #4]
 8002348:	68fb      	ldr	r3, [r7, #12]
 800234a:	681b      	ldr	r3, [r3, #0]
 800234c:	f022 02e0 	bic.w	r2, r2, #224	; 0xe0
 8002350:	605a      	str	r2, [r3, #4]

        if ((hspi->Init.Mode == SPI_MODE_MASTER) && ((hspi->Init.Direction == SPI_DIRECTION_1LINE)
 8002352:	68fb      	ldr	r3, [r7, #12]
 8002354:	685b      	ldr	r3, [r3, #4]
 8002356:	f5b3 7f82 	cmp.w	r3, #260	; 0x104
 800235a:	d111      	bne.n	8002380 <SPI_WaitFlagStateUntilTimeout+0x94>
 800235c:	68fb      	ldr	r3, [r7, #12]
 800235e:	689b      	ldr	r3, [r3, #8]
 8002360:	f5b3 4f00 	cmp.w	r3, #32768	; 0x8000
 8002364:	d004      	beq.n	8002370 <SPI_WaitFlagStateUntilTimeout+0x84>
                                                     || (hspi->Init.Direction == SPI_DIRECTION_2LINES_RXONLY)))
 8002366:	68fb      	ldr	r3, [r7, #12]
 8002368:	689b      	ldr	r3, [r3, #8]
 800236a:	f5b3 6f80 	cmp.w	r3, #1024	; 0x400
 800236e:	d107      	bne.n	8002380 <SPI_WaitFlagStateUntilTimeout+0x94>
        {
          /* Disable SPI peripheral */
          __HAL_SPI_DISABLE(hspi);
 8002370:	68fb      	ldr	r3, [r7, #12]
 8002372:	681b      	ldr	r3, [r3, #0]
 8002374:	681a      	ldr	r2, [r3, #0]
 8002376:	68fb      	ldr	r3, [r7, #12]
 8002378:	681b      	ldr	r3, [r3, #0]
 800237a:	f022 0240 	bic.w	r2, r2, #64	; 0x40
 800237e:	601a      	str	r2, [r3, #0]
        }

        /* Reset CRC Calculation */
        if (hspi->Init.CRCCalculation == SPI_CRCCALCULATION_ENABLE)
 8002380:	68fb      	ldr	r3, [r7, #12]
 8002382:	6a9b      	ldr	r3, [r3, #40]	; 0x28
 8002384:	f5b3 5f00 	cmp.w	r3, #8192	; 0x2000
 8002388:	d10f      	bne.n	80023aa <SPI_WaitFlagStateUntilTimeout+0xbe>
        {
          SPI_RESET_CRC(hspi);
 800238a:	68fb      	ldr	r3, [r7, #12]
 800238c:	681b      	ldr	r3, [r3, #0]
 800238e:	681a      	ldr	r2, [r3, #0]
 8002390:	68fb      	ldr	r3, [r7, #12]
 8002392:	681b      	ldr	r3, [r3, #0]
 8002394:	f422 5200 	bic.w	r2, r2, #8192	; 0x2000
 8002398:	601a      	str	r2, [r3, #0]
 800239a:	68fb      	ldr	r3, [r7, #12]
 800239c:	681b      	ldr	r3, [r3, #0]
 800239e:	681a      	ldr	r2, [r3, #0]
 80023a0:	68fb      	ldr	r3, [r7, #12]
 80023a2:	681b      	ldr	r3, [r3, #0]
 80023a4:	f442 5200 	orr.w	r2, r2, #8192	; 0x2000
 80023a8:	601a      	str	r2, [r3, #0]
        }

        hspi->State = HAL_SPI_STATE_READY;
 80023aa:	68fb      	ldr	r3, [r7, #12]
 80023ac:	2201      	movs	r2, #1
 80023ae:	f883 2051 	strb.w	r2, [r3, #81]	; 0x51

        /* Process Unlocked */
        __HAL_UNLOCK(hspi);
 80023b2:	68fb      	ldr	r3, [r7, #12]
 80023b4:	2200      	movs	r2, #0
 80023b6:	f883 2050 	strb.w	r2, [r3, #80]	; 0x50

        return HAL_TIMEOUT;
 80023ba:	2303      	movs	r3, #3
 80023bc:	e017      	b.n	80023ee <SPI_WaitFlagStateUntilTimeout+0x102>
      }
      /* If Systick is disabled or not incremented, deactivate timeout to go in disable loop procedure */
      if (count == 0U)
 80023be:	697b      	ldr	r3, [r7, #20]
 80023c0:	2b00      	cmp	r3, #0
 80023c2:	d101      	bne.n	80023c8 <SPI_WaitFlagStateUntilTimeout+0xdc>
      {
        tmp_timeout = 0U;
 80023c4:	2300      	movs	r3, #0
 80023c6:	61fb      	str	r3, [r7, #28]
      }
      count--;
 80023c8:	697b      	ldr	r3, [r7, #20]
 80023ca:	3b01      	subs	r3, #1
 80023cc:	617b      	str	r3, [r7, #20]
  while ((__HAL_SPI_GET_FLAG(hspi, Flag) ? SET : RESET) != State)
 80023ce:	68fb      	ldr	r3, [r7, #12]
 80023d0:	681b      	ldr	r3, [r3, #0]
 80023d2:	689a      	ldr	r2, [r3, #8]
 80023d4:	68bb      	ldr	r3, [r7, #8]
 80023d6:	4013      	ands	r3, r2
 80023d8:	68ba      	ldr	r2, [r7, #8]
 80023da:	429a      	cmp	r2, r3
 80023dc:	bf0c      	ite	eq
 80023de:	2301      	moveq	r3, #1
 80023e0:	2300      	movne	r3, #0
 80023e2:	b2db      	uxtb	r3, r3
 80023e4:	461a      	mov	r2, r3
 80023e6:	79fb      	ldrb	r3, [r7, #7]
 80023e8:	429a      	cmp	r2, r3
 80023ea:	d19b      	bne.n	8002324 <SPI_WaitFlagStateUntilTimeout+0x38>
    }
  }

  return HAL_OK;
 80023ec:	2300      	movs	r3, #0
}
 80023ee:	4618      	mov	r0, r3
 80023f0:	3720      	adds	r7, #32
 80023f2:	46bd      	mov	sp, r7
 80023f4:	bd80      	pop	{r7, pc}
 80023f6:	bf00      	nop
 80023f8:	20000000 	.word	0x20000000

080023fc <SPI_EndRxTransaction>:
  * @param  Timeout Timeout duration
  * @param  Tickstart tick start value
  * @retval HAL status
  */
static HAL_StatusTypeDef SPI_EndRxTransaction(SPI_HandleTypeDef *hspi,  uint32_t Timeout, uint32_t Tickstart)
{
 80023fc:	b580      	push	{r7, lr}
 80023fe:	b086      	sub	sp, #24
 8002400:	af02      	add	r7, sp, #8
 8002402:	60f8      	str	r0, [r7, #12]
 8002404:	60b9      	str	r1, [r7, #8]
 8002406:	607a      	str	r2, [r7, #4]
  if ((hspi->Init.Mode == SPI_MODE_MASTER) && ((hspi->Init.Direction == SPI_DIRECTION_1LINE)
 8002408:	68fb      	ldr	r3, [r7, #12]
 800240a:	685b      	ldr	r3, [r3, #4]
 800240c:	f5b3 7f82 	cmp.w	r3, #260	; 0x104
 8002410:	d111      	bne.n	8002436 <SPI_EndRxTransaction+0x3a>
 8002412:	68fb      	ldr	r3, [r7, #12]
 8002414:	689b      	ldr	r3, [r3, #8]
 8002416:	f5b3 4f00 	cmp.w	r3, #32768	; 0x8000
 800241a:	d004      	beq.n	8002426 <SPI_EndRxTransaction+0x2a>
                                               || (hspi->Init.Direction == SPI_DIRECTION_2LINES_RXONLY)))
 800241c:	68fb      	ldr	r3, [r7, #12]
 800241e:	689b      	ldr	r3, [r3, #8]
 8002420:	f5b3 6f80 	cmp.w	r3, #1024	; 0x400
 8002424:	d107      	bne.n	8002436 <SPI_EndRxTransaction+0x3a>
  {
    /* Disable SPI peripheral */
    __HAL_SPI_DISABLE(hspi);
 8002426:	68fb      	ldr	r3, [r7, #12]
 8002428:	681b      	ldr	r3, [r3, #0]
 800242a:	681a      	ldr	r2, [r3, #0]
 800242c:	68fb      	ldr	r3, [r7, #12]
 800242e:	681b      	ldr	r3, [r3, #0]
 8002430:	f022 0240 	bic.w	r2, r2, #64	; 0x40
 8002434:	601a      	str	r2, [r3, #0]
  }

  if ((hspi->Init.Mode == SPI_MODE_MASTER) && (hspi->Init.Direction == SPI_DIRECTION_2LINES_RXONLY))
 8002436:	68fb      	ldr	r3, [r7, #12]
 8002438:	685b      	ldr	r3, [r3, #4]
 800243a:	f5b3 7f82 	cmp.w	r3, #260	; 0x104
 800243e:	d117      	bne.n	8002470 <SPI_EndRxTransaction+0x74>
 8002440:	68fb      	ldr	r3, [r7, #12]
 8002442:	689b      	ldr	r3, [r3, #8]
 8002444:	f5b3 6f80 	cmp.w	r3, #1024	; 0x400
 8002448:	d112      	bne.n	8002470 <SPI_EndRxTransaction+0x74>
  {
    /* Wait the RXNE reset */
    if (SPI_WaitFlagStateUntilTimeout(hspi, SPI_FLAG_RXNE, RESET, Timeout, Tickstart) != HAL_OK)
 800244a:	687b      	ldr	r3, [r7, #4]
 800244c:	9300      	str	r3, [sp, #0]
 800244e:	68bb      	ldr	r3, [r7, #8]
 8002450:	2200      	movs	r2, #0
 8002452:	2101      	movs	r1, #1
 8002454:	68f8      	ldr	r0, [r7, #12]
 8002456:	f7ff ff49 	bl	80022ec <SPI_WaitFlagStateUntilTimeout>
 800245a:	4603      	mov	r3, r0
 800245c:	2b00      	cmp	r3, #0
 800245e:	d01a      	beq.n	8002496 <SPI_EndRxTransaction+0x9a>
    {
      SET_BIT(hspi->ErrorCode, HAL_SPI_ERROR_FLAG);
 8002460:	68fb      	ldr	r3, [r7, #12]
 8002462:	6d5b      	ldr	r3, [r3, #84]	; 0x54
 8002464:	f043 0220 	orr.w	r2, r3, #32
 8002468:	68fb      	ldr	r3, [r7, #12]
 800246a:	655a      	str	r2, [r3, #84]	; 0x54
      return HAL_TIMEOUT;
 800246c:	2303      	movs	r3, #3
 800246e:	e013      	b.n	8002498 <SPI_EndRxTransaction+0x9c>
    }
  }
  else
  {
    /* Control the BSY flag */
    if (SPI_WaitFlagStateUntilTimeout(hspi, SPI_FLAG_BSY, RESET, Timeout, Tickstart) != HAL_OK)
 8002470:	687b      	ldr	r3, [r7, #4]
 8002472:	9300      	str	r3, [sp, #0]
 8002474:	68bb      	ldr	r3, [r7, #8]
 8002476:	2200      	movs	r2, #0
 8002478:	2180      	movs	r1, #128	; 0x80
 800247a:	68f8      	ldr	r0, [r7, #12]
 800247c:	f7ff ff36 	bl	80022ec <SPI_WaitFlagStateUntilTimeout>
 8002480:	4603      	mov	r3, r0
 8002482:	2b00      	cmp	r3, #0
 8002484:	d007      	beq.n	8002496 <SPI_EndRxTransaction+0x9a>
    {
      SET_BIT(hspi->ErrorCode, HAL_SPI_ERROR_FLAG);
 8002486:	68fb      	ldr	r3, [r7, #12]
 8002488:	6d5b      	ldr	r3, [r3, #84]	; 0x54
 800248a:	f043 0220 	orr.w	r2, r3, #32
 800248e:	68fb      	ldr	r3, [r7, #12]
 8002490:	655a      	str	r2, [r3, #84]	; 0x54
      return HAL_TIMEOUT;
 8002492:	2303      	movs	r3, #3
 8002494:	e000      	b.n	8002498 <SPI_EndRxTransaction+0x9c>
    }
  }
  return HAL_OK;
 8002496:	2300      	movs	r3, #0
}
 8002498:	4618      	mov	r0, r3
 800249a:	3710      	adds	r7, #16
 800249c:	46bd      	mov	sp, r7
 800249e:	bd80      	pop	{r7, pc}

080024a0 <SPI_EndRxTxTransaction>:
  * @param  Timeout Timeout duration
  * @param  Tickstart tick start value
  * @retval HAL status
  */
static HAL_StatusTypeDef SPI_EndRxTxTransaction(SPI_HandleTypeDef *hspi, uint32_t Timeout, uint32_t Tickstart)
{
 80024a0:	b580      	push	{r7, lr}
 80024a2:	b086      	sub	sp, #24
 80024a4:	af02      	add	r7, sp, #8
 80024a6:	60f8      	str	r0, [r7, #12]
 80024a8:	60b9      	str	r1, [r7, #8]
 80024aa:	607a      	str	r2, [r7, #4]
  /* Control the BSY flag */
  if (SPI_WaitFlagStateUntilTimeout(hspi, SPI_FLAG_BSY, RESET, Timeout, Tickstart) != HAL_OK)
 80024ac:	687b      	ldr	r3, [r7, #4]
 80024ae:	9300      	str	r3, [sp, #0]
 80024b0:	68bb      	ldr	r3, [r7, #8]
 80024b2:	2200      	movs	r2, #0
 80024b4:	2180      	movs	r1, #128	; 0x80
 80024b6:	68f8      	ldr	r0, [r7, #12]
 80024b8:	f7ff ff18 	bl	80022ec <SPI_WaitFlagStateUntilTimeout>
 80024bc:	4603      	mov	r3, r0
 80024be:	2b00      	cmp	r3, #0
 80024c0:	d007      	beq.n	80024d2 <SPI_EndRxTxTransaction+0x32>
  {
    SET_BIT(hspi->ErrorCode, HAL_SPI_ERROR_FLAG);
 80024c2:	68fb      	ldr	r3, [r7, #12]
 80024c4:	6d5b      	ldr	r3, [r3, #84]	; 0x54
 80024c6:	f043 0220 	orr.w	r2, r3, #32
 80024ca:	68fb      	ldr	r3, [r7, #12]
 80024cc:	655a      	str	r2, [r3, #84]	; 0x54
    return HAL_TIMEOUT;
 80024ce:	2303      	movs	r3, #3
 80024d0:	e000      	b.n	80024d4 <SPI_EndRxTxTransaction+0x34>
  }
  return HAL_OK;
 80024d2:	2300      	movs	r3, #0
}
 80024d4:	4618      	mov	r0, r3
 80024d6:	3710      	adds	r7, #16
 80024d8:	46bd      	mov	sp, r7
 80024da:	bd80      	pop	{r7, pc}

080024dc <HAL_UART_Init>:
  * @param  huart  Pointer to a UART_HandleTypeDef structure that contains
  *                the configuration information for the specified UART module.
  * @retval HAL status
  */
HAL_StatusTypeDef HAL_UART_Init(UART_HandleTypeDef *huart)
{
 80024dc:	b580      	push	{r7, lr}
 80024de:	b082      	sub	sp, #8
 80024e0:	af00      	add	r7, sp, #0
 80024e2:	6078      	str	r0, [r7, #4]
  /* Check the UART handle allocation */
  if (huart == NULL)
 80024e4:	687b      	ldr	r3, [r7, #4]
 80024e6:	2b00      	cmp	r3, #0
 80024e8:	d101      	bne.n	80024ee <HAL_UART_Init+0x12>
  {
    return HAL_ERROR;
 80024ea:	2301      	movs	r3, #1
 80024ec:	e042      	b.n	8002574 <HAL_UART_Init+0x98>
  assert_param(IS_UART_WORD_LENGTH(huart->Init.WordLength));
#if defined(USART_CR1_OVER8)
  assert_param(IS_UART_OVERSAMPLING(huart->Init.OverSampling));
#endif /* USART_CR1_OVER8 */

  if (huart->gState == HAL_UART_STATE_RESET)
 80024ee:	687b      	ldr	r3, [r7, #4]
 80024f0:	f893 3041 	ldrb.w	r3, [r3, #65]	; 0x41
 80024f4:	b2db      	uxtb	r3, r3
 80024f6:	2b00      	cmp	r3, #0
 80024f8:	d106      	bne.n	8002508 <HAL_UART_Init+0x2c>
  {
    /* Allocate lock resource and initialize it */
    huart->Lock = HAL_UNLOCKED;
 80024fa:	687b      	ldr	r3, [r7, #4]
 80024fc:	2200      	movs	r2, #0
 80024fe:	f883 2040 	strb.w	r2, [r3, #64]	; 0x40

    /* Init the low level hardware */
    huart->MspInitCallback(huart);
#else
    /* Init the low level hardware : GPIO, CLOCK */
    HAL_UART_MspInit(huart);
 8002502:	6878      	ldr	r0, [r7, #4]
 8002504:	f7fe faa8 	bl	8000a58 <HAL_UART_MspInit>
#endif /* (USE_HAL_UART_REGISTER_CALLBACKS) */
  }

  huart->gState = HAL_UART_STATE_BUSY;
 8002508:	687b      	ldr	r3, [r7, #4]
 800250a:	2224      	movs	r2, #36	; 0x24
 800250c:	f883 2041 	strb.w	r2, [r3, #65]	; 0x41

  /* Disable the peripheral */
  __HAL_UART_DISABLE(huart);
 8002510:	687b      	ldr	r3, [r7, #4]
 8002512:	681b      	ldr	r3, [r3, #0]
 8002514:	68da      	ldr	r2, [r3, #12]
 8002516:	687b      	ldr	r3, [r7, #4]
 8002518:	681b      	ldr	r3, [r3, #0]
 800251a:	f422 5200 	bic.w	r2, r2, #8192	; 0x2000
 800251e:	60da      	str	r2, [r3, #12]

  /* Set the UART Communication parameters */
  UART_SetConfig(huart);
 8002520:	6878      	ldr	r0, [r7, #4]
 8002522:	f000 f82b 	bl	800257c <UART_SetConfig>

  /* In asynchronous mode, the following bits must be kept cleared:
     - LINEN and CLKEN bits in the USART_CR2 register,
     - SCEN, HDSEL and IREN  bits in the USART_CR3 register.*/
  CLEAR_BIT(huart->Instance->CR2, (USART_CR2_LINEN | USART_CR2_CLKEN));
 8002526:	687b      	ldr	r3, [r7, #4]
 8002528:	681b      	ldr	r3, [r3, #0]
 800252a:	691a      	ldr	r2, [r3, #16]
 800252c:	687b      	ldr	r3, [r7, #4]
 800252e:	681b      	ldr	r3, [r3, #0]
 8002530:	f422 4290 	bic.w	r2, r2, #18432	; 0x4800
 8002534:	611a      	str	r2, [r3, #16]
  CLEAR_BIT(huart->Instance->CR3, (USART_CR3_SCEN | USART_CR3_HDSEL | USART_CR3_IREN));
 8002536:	687b      	ldr	r3, [r7, #4]
 8002538:	681b      	ldr	r3, [r3, #0]
 800253a:	695a      	ldr	r2, [r3, #20]
 800253c:	687b      	ldr	r3, [r7, #4]
 800253e:	681b      	ldr	r3, [r3, #0]
 8002540:	f022 022a 	bic.w	r2, r2, #42	; 0x2a
 8002544:	615a      	str	r2, [r3, #20]

  /* Enable the peripheral */
  __HAL_UART_ENABLE(huart);
 8002546:	687b      	ldr	r3, [r7, #4]
 8002548:	681b      	ldr	r3, [r3, #0]
 800254a:	68da      	ldr	r2, [r3, #12]
 800254c:	687b      	ldr	r3, [r7, #4]
 800254e:	681b      	ldr	r3, [r3, #0]
 8002550:	f442 5200 	orr.w	r2, r2, #8192	; 0x2000
 8002554:	60da      	str	r2, [r3, #12]

  /* Initialize the UART state */
  huart->ErrorCode = HAL_UART_ERROR_NONE;
 8002556:	687b      	ldr	r3, [r7, #4]
 8002558:	2200      	movs	r2, #0
 800255a:	645a      	str	r2, [r3, #68]	; 0x44
  huart->gState = HAL_UART_STATE_READY;
 800255c:	687b      	ldr	r3, [r7, #4]
 800255e:	2220      	movs	r2, #32
 8002560:	f883 2041 	strb.w	r2, [r3, #65]	; 0x41
  huart->RxState = HAL_UART_STATE_READY;
 8002564:	687b      	ldr	r3, [r7, #4]
 8002566:	2220      	movs	r2, #32
 8002568:	f883 2042 	strb.w	r2, [r3, #66]	; 0x42
  huart->RxEventType = HAL_UART_RXEVENT_TC;
 800256c:	687b      	ldr	r3, [r7, #4]
 800256e:	2200      	movs	r2, #0
 8002570:	635a      	str	r2, [r3, #52]	; 0x34

  return HAL_OK;
 8002572:	2300      	movs	r3, #0
}
 8002574:	4618      	mov	r0, r3
 8002576:	3708      	adds	r7, #8
 8002578:	46bd      	mov	sp, r7
 800257a:	bd80      	pop	{r7, pc}

0800257c <UART_SetConfig>:
  * @param  huart  Pointer to a UART_HandleTypeDef structure that contains
  *                the configuration information for the specified UART module.
  * @retval None
  */
static void UART_SetConfig(UART_HandleTypeDef *huart)
{
 800257c:	b580      	push	{r7, lr}
 800257e:	b084      	sub	sp, #16
 8002580:	af00      	add	r7, sp, #0
 8002582:	6078      	str	r0, [r7, #4]
  assert_param(IS_UART_MODE(huart->Init.Mode));

  /*-------------------------- USART CR2 Configuration -----------------------*/
  /* Configure the UART Stop Bits: Set STOP[13:12] bits
     according to huart->Init.StopBits value */
  MODIFY_REG(huart->Instance->CR2, USART_CR2_STOP, huart->Init.StopBits);
 8002584:	687b      	ldr	r3, [r7, #4]
 8002586:	681b      	ldr	r3, [r3, #0]
 8002588:	691b      	ldr	r3, [r3, #16]
 800258a:	f423 5140 	bic.w	r1, r3, #12288	; 0x3000
 800258e:	687b      	ldr	r3, [r7, #4]
 8002590:	68da      	ldr	r2, [r3, #12]
 8002592:	687b      	ldr	r3, [r7, #4]
 8002594:	681b      	ldr	r3, [r3, #0]
 8002596:	430a      	orrs	r2, r1
 8002598:	611a      	str	r2, [r3, #16]
  tmpreg = (uint32_t)huart->Init.WordLength | huart->Init.Parity | huart->Init.Mode | huart->Init.OverSampling;
  MODIFY_REG(huart->Instance->CR1,
             (uint32_t)(USART_CR1_M | USART_CR1_PCE | USART_CR1_PS | USART_CR1_TE | USART_CR1_RE | USART_CR1_OVER8),
             tmpreg);
#else
  tmpreg = (uint32_t)huart->Init.WordLength | huart->Init.Parity | huart->Init.Mode;
 800259a:	687b      	ldr	r3, [r7, #4]
 800259c:	689a      	ldr	r2, [r3, #8]
 800259e:	687b      	ldr	r3, [r7, #4]
 80025a0:	691b      	ldr	r3, [r3, #16]
 80025a2:	431a      	orrs	r2, r3
 80025a4:	687b      	ldr	r3, [r7, #4]
 80025a6:	695b      	ldr	r3, [r3, #20]
 80025a8:	4313      	orrs	r3, r2
 80025aa:	60bb      	str	r3, [r7, #8]
  MODIFY_REG(huart->Instance->CR1,
 80025ac:	687b      	ldr	r3, [r7, #4]
 80025ae:	681b      	ldr	r3, [r3, #0]
 80025b0:	68db      	ldr	r3, [r3, #12]
 80025b2:	f423 53b0 	bic.w	r3, r3, #5632	; 0x1600
 80025b6:	f023 030c 	bic.w	r3, r3, #12
 80025ba:	687a      	ldr	r2, [r7, #4]
 80025bc:	6812      	ldr	r2, [r2, #0]
 80025be:	68b9      	ldr	r1, [r7, #8]
 80025c0:	430b      	orrs	r3, r1
 80025c2:	60d3      	str	r3, [r2, #12]
             tmpreg);
#endif /* USART_CR1_OVER8 */

  /*-------------------------- USART CR3 Configuration -----------------------*/
  /* Configure the UART HFC: Set CTSE and RTSE bits according to huart->Init.HwFlowCtl value */
  MODIFY_REG(huart->Instance->CR3, (USART_CR3_RTSE | USART_CR3_CTSE), huart->Init.HwFlowCtl);
 80025c4:	687b      	ldr	r3, [r7, #4]
 80025c6:	681b      	ldr	r3, [r3, #0]
 80025c8:	695b      	ldr	r3, [r3, #20]
 80025ca:	f423 7140 	bic.w	r1, r3, #768	; 0x300
 80025ce:	687b      	ldr	r3, [r7, #4]
 80025d0:	699a      	ldr	r2, [r3, #24]
 80025d2:	687b      	ldr	r3, [r7, #4]
 80025d4:	681b      	ldr	r3, [r3, #0]
 80025d6:	430a      	orrs	r2, r1
 80025d8:	615a      	str	r2, [r3, #20]


  if(huart->Instance == USART1)
 80025da:	687b      	ldr	r3, [r7, #4]
 80025dc:	681b      	ldr	r3, [r3, #0]
 80025de:	4a2c      	ldr	r2, [pc, #176]	; (8002690 <UART_SetConfig+0x114>)
 80025e0:	4293      	cmp	r3, r2
 80025e2:	d103      	bne.n	80025ec <UART_SetConfig+0x70>
  {
    pclk = HAL_RCC_GetPCLK2Freq();
 80025e4:	f7ff f9b4 	bl	8001950 <HAL_RCC_GetPCLK2Freq>
 80025e8:	60f8      	str	r0, [r7, #12]
 80025ea:	e002      	b.n	80025f2 <UART_SetConfig+0x76>
  }
  else
  {
    pclk = HAL_RCC_GetPCLK1Freq();
 80025ec:	f7ff f99c 	bl	8001928 <HAL_RCC_GetPCLK1Freq>
 80025f0:	60f8      	str	r0, [r7, #12]
  else
  {
    huart->Instance->BRR = UART_BRR_SAMPLING16(pclk, huart->Init.BaudRate);
  }
#else
  huart->Instance->BRR = UART_BRR_SAMPLING16(pclk, huart->Init.BaudRate);
 80025f2:	68fa      	ldr	r2, [r7, #12]
 80025f4:	4613      	mov	r3, r2
 80025f6:	009b      	lsls	r3, r3, #2
 80025f8:	4413      	add	r3, r2
 80025fa:	009a      	lsls	r2, r3, #2
 80025fc:	441a      	add	r2, r3
 80025fe:	687b      	ldr	r3, [r7, #4]
 8002600:	685b      	ldr	r3, [r3, #4]
 8002602:	009b      	lsls	r3, r3, #2
 8002604:	fbb2 f3f3 	udiv	r3, r2, r3
 8002608:	4a22      	ldr	r2, [pc, #136]	; (8002694 <UART_SetConfig+0x118>)
 800260a:	fba2 2303 	umull	r2, r3, r2, r3
 800260e:	095b      	lsrs	r3, r3, #5
 8002610:	0119      	lsls	r1, r3, #4
 8002612:	68fa      	ldr	r2, [r7, #12]
 8002614:	4613      	mov	r3, r2
 8002616:	009b      	lsls	r3, r3, #2
 8002618:	4413      	add	r3, r2
 800261a:	009a      	lsls	r2, r3, #2
 800261c:	441a      	add	r2, r3
 800261e:	687b      	ldr	r3, [r7, #4]
 8002620:	685b      	ldr	r3, [r3, #4]
 8002622:	009b      	lsls	r3, r3, #2
 8002624:	fbb2 f2f3 	udiv	r2, r2, r3
 8002628:	4b1a      	ldr	r3, [pc, #104]	; (8002694 <UART_SetConfig+0x118>)
 800262a:	fba3 0302 	umull	r0, r3, r3, r2
 800262e:	095b      	lsrs	r3, r3, #5
 8002630:	2064      	movs	r0, #100	; 0x64
 8002632:	fb00 f303 	mul.w	r3, r0, r3
 8002636:	1ad3      	subs	r3, r2, r3
 8002638:	011b      	lsls	r3, r3, #4
 800263a:	3332      	adds	r3, #50	; 0x32
 800263c:	4a15      	ldr	r2, [pc, #84]	; (8002694 <UART_SetConfig+0x118>)
 800263e:	fba2 2303 	umull	r2, r3, r2, r3
 8002642:	095b      	lsrs	r3, r3, #5
 8002644:	f003 03f0 	and.w	r3, r3, #240	; 0xf0
 8002648:	4419      	add	r1, r3
 800264a:	68fa      	ldr	r2, [r7, #12]
 800264c:	4613      	mov	r3, r2
 800264e:	009b      	lsls	r3, r3, #2
 8002650:	4413      	add	r3, r2
 8002652:	009a      	lsls	r2, r3, #2
 8002654:	441a      	add	r2, r3
 8002656:	687b      	ldr	r3, [r7, #4]
 8002658:	685b      	ldr	r3, [r3, #4]
 800265a:	009b      	lsls	r3, r3, #2
 800265c:	fbb2 f2f3 	udiv	r2, r2, r3
 8002660:	4b0c      	ldr	r3, [pc, #48]	; (8002694 <UART_SetConfig+0x118>)
 8002662:	fba3 0302 	umull	r0, r3, r3, r2
 8002666:	095b      	lsrs	r3, r3, #5
 8002668:	2064      	movs	r0, #100	; 0x64
 800266a:	fb00 f303 	mul.w	r3, r0, r3
 800266e:	1ad3      	subs	r3, r2, r3
 8002670:	011b      	lsls	r3, r3, #4
 8002672:	3332      	adds	r3, #50	; 0x32
 8002674:	4a07      	ldr	r2, [pc, #28]	; (8002694 <UART_SetConfig+0x118>)
 8002676:	fba2 2303 	umull	r2, r3, r2, r3
 800267a:	095b      	lsrs	r3, r3, #5
 800267c:	f003 020f 	and.w	r2, r3, #15
 8002680:	687b      	ldr	r3, [r7, #4]
 8002682:	681b      	ldr	r3, [r3, #0]
 8002684:	440a      	add	r2, r1
 8002686:	609a      	str	r2, [r3, #8]
#endif /* USART_CR1_OVER8 */
}
 8002688:	bf00      	nop
 800268a:	3710      	adds	r7, #16
 800268c:	46bd      	mov	sp, r7
 800268e:	bd80      	pop	{r7, pc}
 8002690:	40013800 	.word	0x40013800
 8002694:	51eb851f 	.word	0x51eb851f

08002698 <__libc_init_array>:
 8002698:	b570      	push	{r4, r5, r6, lr}
 800269a:	2600      	movs	r6, #0
 800269c:	4d0c      	ldr	r5, [pc, #48]	; (80026d0 <__libc_init_array+0x38>)
 800269e:	4c0d      	ldr	r4, [pc, #52]	; (80026d4 <__libc_init_array+0x3c>)
 80026a0:	1b64      	subs	r4, r4, r5
 80026a2:	10a4      	asrs	r4, r4, #2
 80026a4:	42a6      	cmp	r6, r4
 80026a6:	d109      	bne.n	80026bc <__libc_init_array+0x24>
 80026a8:	f000 f822 	bl	80026f0 <_init>
 80026ac:	2600      	movs	r6, #0
 80026ae:	4d0a      	ldr	r5, [pc, #40]	; (80026d8 <__libc_init_array+0x40>)
 80026b0:	4c0a      	ldr	r4, [pc, #40]	; (80026dc <__libc_init_array+0x44>)
 80026b2:	1b64      	subs	r4, r4, r5
 80026b4:	10a4      	asrs	r4, r4, #2
 80026b6:	42a6      	cmp	r6, r4
 80026b8:	d105      	bne.n	80026c6 <__libc_init_array+0x2e>
 80026ba:	bd70      	pop	{r4, r5, r6, pc}
 80026bc:	f855 3b04 	ldr.w	r3, [r5], #4
 80026c0:	4798      	blx	r3
 80026c2:	3601      	adds	r6, #1
 80026c4:	e7ee      	b.n	80026a4 <__libc_init_array+0xc>
 80026c6:	f855 3b04 	ldr.w	r3, [r5], #4
 80026ca:	4798      	blx	r3
 80026cc:	3601      	adds	r6, #1
 80026ce:	e7f2      	b.n	80026b6 <__libc_init_array+0x1e>
 80026d0:	0800273c 	.word	0x0800273c
 80026d4:	0800273c 	.word	0x0800273c
 80026d8:	0800273c 	.word	0x0800273c
 80026dc:	08002740 	.word	0x08002740

080026e0 <memset>:
 80026e0:	4603      	mov	r3, r0
 80026e2:	4402      	add	r2, r0
 80026e4:	4293      	cmp	r3, r2
 80026e6:	d100      	bne.n	80026ea <memset+0xa>
 80026e8:	4770      	bx	lr
 80026ea:	f803 1b01 	strb.w	r1, [r3], #1
 80026ee:	e7f9      	b.n	80026e4 <memset+0x4>

080026f0 <_init>:
 80026f0:	b5f8      	push	{r3, r4, r5, r6, r7, lr}
 80026f2:	bf00      	nop
 80026f4:	bcf8      	pop	{r3, r4, r5, r6, r7}
 80026f6:	bc08      	pop	{r3}
 80026f8:	469e      	mov	lr, r3
 80026fa:	4770      	bx	lr

080026fc <_fini>:
 80026fc:	b5f8      	push	{r3, r4, r5, r6, r7, lr}
 80026fe:	bf00      	nop
 8002700:	bcf8      	pop	{r3, r4, r5, r6, r7}
 8002702:	bc08      	pop	{r3}
 8002704:	469e      	mov	lr, r3
 8002706:	4770      	bx	lr
